(lp1
(S'20130701'
p2
I22533121
tp3
a(S'20130702'
p4
I29624840
tp5
a(S'20130703'
p6
I22525940
tp7
a(S'20130704'
p8
I32111643
tp9
a(S'20130705'
p10
I16129924
tp11
a(S'20130706'
p12
I16179865
tp13
a(S'20130707'
p14
I15516443
tp15
a(S'20130708'
p16
I98730828
tp17
a(S'20130709'
p18
I18623071
tp19
a(S'20130710'
p20
I42210154
tp21
a(S'20130711'
p22
I29843023
tp23
a(S'20130712'
p24
I23202473
tp25
a(S'20130713'
p26
I19218553
tp27
a(S'20130714'
p28
I101209093
tp29
a(S'20130715'
p30
I106271409
tp31
a(S'20130716'
p32
I26323198
tp33
a(S'20130717'
p34
I28834269
tp35
a(S'20130718'
p36
I27609385
tp37
a(S'20130719'
p38
I126301368
tp39
a(S'20130720'
p40
I20662791
tp41
a(S'20130721'
p42
I81375803
tp43
a(S'20130722'
p44
I37844074
tp45
a(S'20130723'
p46
I25115410
tp47
a(S'20130724'
p48
I29405789
tp49
a(S'20130725'
p50
I123922858
tp51
a(S'20130726'
p52
I25835746
tp53
a(S'20130727'
p54
I31021548
tp55
a(S'20130728'
p56
I26260152
tp57
a(S'20130729'
p58
I59130418
tp59
a(S'20130730'
p60
I35410500
tp61
a(S'20130731'
p62
I122942064
tp63
a(S'20130801'
p64
I61905830
tp65
a(S'20130802'
p66
I73104389
tp67
a(S'20130803'
p68
I31370682
tp69
a(S'20130804'
p70
I45251520
tp71
a(S'20130805'
p72
I51533056
tp73
a(S'20130806'
p74
I27348705
tp75
a(S'20130807'
p76
I24953363
tp77
a(S'20130808'
p78
I44702970
tp79
a(S'20130809'
p80
I46197838
tp81
a(S'20130810'
p82
I44403831
tp83
a(S'20130811'
p84
I42840984
tp85
a(S'20130812'
p86
I33901418
tp87
a(S'20130813'
p88
I45856548
tp89
a(S'20130814'
p90
I39066415
tp91
a(S'20130815'
p92
I29238678
tp93
a(S'20130816'
p94
I54635823
tp95
a(S'20130817'
p96
I15688245
tp97
a(S'20130818'
p98
I45069353
tp99
a(S'20130819'
p100
I48319110
tp101
a(S'20130820'
p102
I51304276
tp103
a(S'20130821'
p104
I45762636
tp105
a(S'20130822'
p106
I26545809
tp107
a(S'20130823'
p108
I33855284
tp109
a(S'20130824'
p110
I54574111
tp111
a(S'20130825'
p112
I17586501
tp113
a(S'20130826'
p114
I52044963
tp115
a(S'20130827'
p116
I49273164
tp117
a(S'20130828'
p118
I57249467
tp119
a(S'20130829'
p120
I31008331
tp121
a(S'20130830'
p122
I29172174
tp123
a(S'20130831'
p124
I27720016
tp125
a(S'20130901'
p126
I60276302
tp127
a(S'20130902'
p128
I42168974
tp129
a(S'20130903'
p130
I58345539
tp131
a(S'20130904'
p132
I55301172
tp133
a(S'20130905'
p134
I42500904
tp135
a(S'20130906'
p136
I38650095
tp137
a(S'20130907'
p138
I49801798
tp139
a(S'20130908'
p140
I24810658
tp141
a(S'20130909'
p142
I55565482
tp143
a(S'20130910'
p144
I81305151
tp145
a(S'20130911'
p146
I93077458
tp147
a(S'20130912'
p148
I50035862
tp149
a(S'20130913'
p150
I48041116
tp151
a(S'20130914'
p152
I34379286
tp153
a(S'20130915'
p154
I38956366
tp155
a(S'20130916'
p156
I104399397
tp157
a(S'20130917'
p158
I75209349
tp159
a(S'20130918'
p160
I41969227
tp161
a(S'20130919'
p162
I40861546
tp163
a(S'20130920'
p164
I33601331
tp165
a(S'20130921'
p166
I61641978
tp167
a(S'20130922'
p168
I59188234
tp169
a(S'20130923'
p170
I37338427
tp171
a(S'20130924'
p172
I56008378
tp173
a(S'20130925'
p174
I107206248
tp175
a(S'20130926'
p176
I49684160
tp177
a(S'20130927'
p178
I51076556
tp179
a(S'20130928'
p180
I46758852
tp181
a(S'20130929'
p182
I76038490
tp183
a(S'20130930'
p184
I49151321
tp185
a(S'20131001'
p186
I22858568
tp187
a(S'20131002'
p188
I15700008
tp189
a(S'20131003'
p190
I7251212
tp191
a(S'20131004'
p192
I22868589
tp193
a(S'20131005'
p194
I21245166
tp195
a(S'20131006'
p196
I40318288
tp197
a(S'20131007'
p198
I56730939
tp199
a(S'20131008'
p200
I115047417
tp201
a(S'20131009'
p202
I67339813
tp203
a(S'20131010'
p204
I93642539
tp205
a(S'20131011'
p206
I68845671
tp207
a(S'20131012'
p208
I95312628
tp209
a(S'20131013'
p210
I40381173
tp211
a(S'20131014'
p212
I158158044
tp213
a(S'20131015'
p214
I108776071
tp215
a(S'20131016'
p216
I156977224
tp217
a(S'20131017'
p218
I73354575
tp219
a(S'20131018'
p220
I80573607
tp221
a(S'20131019'
p222
I47140830
tp223
a(S'20131020'
p224
I78146352
tp225
a(S'20131021'
p226
I92303765
tp227
a(S'20131022'
p228
I79936840
tp229
a(S'20131023'
p230
I91267273
tp231
a(S'20131024'
p232
I78253878
tp233
a(S'20131025'
p234
I72866681
tp235
a(S'20131026'
p236
I89152724
tp237
a(S'20131027'
p238
I58360160
tp239
a(S'20131028'
p240
I175987478
tp241
a(S'20131029'
p242
I147891369
tp243
a(S'20131030'
p244
I123495252
tp245
a(S'20131031'
p246
I105655220
tp247
a(S'20131101'
p248
I90052647
tp249
a(S'20131102'
p250
I60697754
tp251
a(S'20131103'
p252
I109705314
tp253
a(S'20131104'
p254
I134705147
tp255
a(S'20131105'
p256
I170112074
tp257
a(S'20131106'
p258
I177181307
tp259
a(S'20131107'
p260
I219191421
tp261
a(S'20131108'
p262
I249304249
tp263
a(S'20131109'
p264
I123652022
tp265
a(S'20131110'
p266
I158993537
tp267
a(S'20131111'
p268
I143416540
tp269
a(S'20131112'
p270
I173549641
tp271
a(S'20131113'
p272
I158376990
tp273
a(S'20131114'
p274
I148622821
tp275
a(S'20131115'
p276
I116112820
tp277
a(S'20131116'
p278
I85621804
tp279
a(S'20131117'
p280
I98492364
tp281
a(S'20131118'
p282
I145222355
tp283
a(S'20131119'
p284
I165943591
tp285
a(S'20131120'
p286
I149019647
tp287
a(S'20131121'
p288
I236672974
tp289
a(S'20131122'
p290
I139140591
tp291
a(S'20131123'
p292
I85234876
tp293
a(S'20131124'
p294
I97522283
tp295
a(S'20131125'
p296
I188023955
tp297
a(S'20131126'
p298
I181397027
tp299
a(S'20131127'
p300
I152083973
tp301
a(S'20131128'
p302
I152510165
tp303
a(S'20131129'
p304
I144836611
tp305
a(S'20131130'
p306
I94687796
tp307
a(S'20131201'
p308
I179080325
tp309
a(S'20131202'
p310
I207768089
tp311
a(S'20131203'
p312
I176533224
tp313
a(S'20131204'
p314
I253181565
tp315
a(S'20131205'
p316
I152989262
tp317
a(S'20131206'
p318
I198597129
tp319
a(S'20131207'
p320
I116093484
tp321
a(S'20131208'
p322
I127532403
tp323
a(S'20131209'
p324
I214664521
tp325
a(S'20131210'
p326
I281121012
tp327
a(S'20131211'
p328
I316266609
tp329
a(S'20131212'
p330
I172183635
tp331
a(S'20131213'
p332
I146722615
tp333
a(S'20131214'
p334
I134839018
tp335
a(S'20131215'
p336
I119396143
tp337
a(S'20131216'
p338
I188230089
tp339
a(S'20131217'
p340
I212780998
tp341
a(S'20131218'
p342
I190985922
tp343
a(S'20131219'
p344
I144026114
tp345
a(S'20131220'
p346
I131176893
tp347
a(S'20131221'
p348
I91445173
tp349
a(S'20131222'
p350
I140558599
tp351
a(S'20131223'
p352
I190330016
tp353
a(S'20131224'
p354
I182690432
tp355
a(S'20131225'
p356
I153343940
tp357
a(S'20131226'
p358
I187935531
tp359
a(S'20131227'
p360
I173898861
tp361
a(S'20131228'
p362
I199852196
tp363
a(S'20131229'
p364
I173772752
tp365
a(S'20131230'
p366
I286491118
tp367
a(S'20131231'
p368
I326974771
tp369
a(S'20140101'
p370
I335862570
tp371
a(S'20140102'
p372
I301179400
tp373
a(S'20140103'
p374
I291336871
tp375
a(S'20140104'
p376
I155828144
tp377
a(S'20140105'
p378
I321343539
tp379
a(S'20140106'
p380
I371683914
tp381
a(S'20140107'
p382
I339901798
tp383
a(S'20140108'
p384
I271765172
tp385
a(S'20140109'
p386
I345036273
tp387
a(S'20140110'
p388
I296993855
tp389
a(S'20140111'
p390
I178289447
tp391
a(S'20140112'
p392
I192128885
tp393
a(S'20140113'
p394
I292143045
tp395
a(S'20140114'
p396
I337203610
tp397
a(S'20140115'
p398
I233318844
tp399
a(S'20140116'
p400
I490563564
tp401
a(S'20140117'
p402
I262046075
tp403
a(S'20140118'
p404
I184240864
tp405
a(S'20140119'
p406
I301523785
tp407
a(S'20140120'
p408
I312028349
tp409
a(S'20140121'
p410
I337095722
tp411
a(S'20140122'
p412
I462593233
tp413
a(S'20140123'
p414
I294368520
tp415
a(S'20140124'
p416
I450511317
tp417
a(S'20140125'
p418
I349192126
tp419
a(S'20140126'
p420
I446945594
tp421
a(S'20140127'
p422
I715461017
tp423
a(S'20140128'
p424
I870587680
tp425
a(S'20140129'
p426
I1183825013
tp427
a(S'20140130'
p428
I242566772
tp429
a(S'20140131'
p430
I90124260
tp431
a(S'20140201'
p432
I101183694
tp433
a(S'20140202'
p434
I86649833
tp435
a(S'20140203'
p436
I85303404
tp437
a(S'20140204'
p438
I92866528
tp439
a(S'20140205'
p440
I162119647
tp441
a(S'20140206'
p442
I225661839
tp443
a(S'20140207'
p444
I621409043
tp445
a(S'20140208'
p446
I315242286
tp447
a(S'20140209'
p448
I336607101
tp449
a(S'20140210'
p450
I632298767
tp451
a(S'20140211'
p452
I670470102
tp453
a(S'20140212'
p454
I551106906
tp455
a(S'20140213'
p456
I461212821
tp457
a(S'20140214'
p458
I522331058
tp459
a(S'20140215'
p460
I305214647
tp461
a(S'20140216'
p462
I361250311
tp463
a(S'20140217'
p464
I675485671
tp465
a(S'20140218'
p466
I422741202
tp467
a(S'20140219'
p468
I642931201
tp469
a(S'20140220'
p470
I527167832
tp471
a(S'20140221'
p472
I394746918
tp473
a(S'20140222'
p474
I235659822
tp475
a(S'20140223'
p476
I308396249
tp477
a(S'20140224'
p478
I595170010
tp479
a(S'20140225'
p480
I713994252
tp481
a(S'20140226'
p482
I486006154
tp483
a(S'20140227'
p484
I537812517
tp485
a(S'20140228'
p486
I420504763
tp487
a(S'20140301'
p488
I215356482
tp489
a(S'20140302'
p490
I275779265
tp491
a(S'20140303'
p492
I523895828
tp493
a(S'20140304'
p494
I521644375
tp495
a(S'20140305'
p496
I497668868
tp497
a(S'20140306'
p498
I495755683
tp499
a(S'20140307'
p500
I492623841
tp501
a(S'20140308'
p502
I215355021
tp503
a(S'20140309'
p504
I296559440
tp505
a(S'20140310'
p506
I533357693
tp507
a(S'20140311'
p508
I488913889
tp509
a(S'20140312'
p510
I317050657
tp511
a(S'20140313'
p512
I438410772
tp513
a(S'20140314'
p514
I319556555
tp515
a(S'20140315'
p516
I201137958
tp517
a(S'20140316'
p518
I219592025
tp519
a(S'20140317'
p520
I411958428
tp521
a(S'20140318'
p522
I302616910
tp523
a(S'20140319'
p524
I295342178
tp525
a(S'20140320'
p526
I302584612
tp527
a(S'20140321'
p528
I274386390
tp529
a(S'20140322'
p530
I145506447
tp531
a(S'20140323'
p532
I167604758
tp533
a(S'20140324'
p534
I330726069
tp535
a(S'20140325'
p536
I337425152
tp537
a(S'20140326'
p538
I426653122
tp539
a(S'20140327'
p540
I266160879
tp541
a(S'20140328'
p542
I223771699
tp543
a(S'20140329'
p544
I194925803
tp545
a(S'20140330'
p546
I161565264
tp547
a(S'20140331'
p548
I377931423
tp549
a(S'20140401'
p550
I424784984
tp551
a(S'20140402'
p552
I418550858
tp553
a(S'20140403'
p554
I301858010
tp555
a(S'20140404'
p556
I235574221
tp557
a(S'20140405'
p558
I171320519
tp559
a(S'20140406'
p560
I132973045
tp561
a(S'20140407'
p562
I237413785
tp563
a(S'20140408'
p564
I360613734
tp565
a(S'20140409'
p566
I465391689
tp567
a(S'20140410'
p568
I325897532
tp569
a(S'20140411'
p570
I275556141
tp571
a(S'20140412'
p572
I198643801
tp573
a(S'20140413'
p574
I202424482
tp575
a(S'20140414'
p576
I359340606
tp577
a(S'20140415'
p578
I337278983
tp579
a(S'20140416'
p580
I344518277
tp581
a(S'20140417'
p582
I268273324
tp583
a(S'20140418'
p584
I297030419
tp585
a(S'20140419'
p586
I131860659
tp587
a(S'20140420'
p588
I161634908
tp589
a(S'20140421'
p590
I381369739
tp591
a(S'20140422'
p592
I268322472
tp593
a(S'20140423'
p594
I262963640
tp595
a(S'20140424'
p596
I203798291
tp597
a(S'20140425'
p598
I320373050
tp599
a(S'20140426'
p600
I184640194
tp601
a(S'20140427'
p602
I167611543
tp603
a(S'20140428'
p604
I285236269
tp605
a(S'20140429'
p606
I303772841
tp607
a(S'20140430'
p608
I232262878
tp609
a(S'20140501'
p610
I197451051
tp611
a(S'20140502'
p612
I129869154
tp613
a(S'20140503'
p614
I229609301
tp615
a(S'20140504'
p616
I297192156
tp617
a(S'20140505'
p618
I425987710
tp619
a(S'20140506'
p620
I323536443
tp621
a(S'20140507'
p622
I406395515
tp623
a(S'20140508'
p624
I353562072
tp625
a(S'20140509'
p626
I265472393
tp627
a(S'20140510'
p628
I227672886
tp629
a(S'20140511'
p630
I208480221
tp631
a(S'20140512'
p632
I285228437
tp633
a(S'20140513'
p634
I362372059
tp635
a(S'20140514'
p636
I290208996
tp637
a(S'20140515'
p638
I303286621
tp639
a(S'20140516'
p640
I254644568
tp641
a(S'20140517'
p642
I116291491
tp643
a(S'20140518'
p644
I161097108
tp645
a(S'20140519'
p646
I347718384
tp647
a(S'20140520'
p648
I286615315
tp649
a(S'20140521'
p650
I241015636
tp651
a(S'20140522'
p652
I273390048
tp653
a(S'20140523'
p654
I200156003
tp655
a(S'20140524'
p656
I141641047
tp657
a(S'20140525'
p658
I169866612
tp659
a(S'20140526'
p660
I266803815
tp661
a(S'20140527'
p662
I249676185
tp663
a(S'20140528'
p664
I268930576
tp665
a(S'20140529'
p666
I339227554
tp667
a(S'20140530'
p668
I248860973
tp669
a(S'20140531'
p670
I128370165
tp671
a(S'20140601'
p672
I143942297
tp673
a(S'20140602'
p674
I176770324
tp675
a(S'20140603'
p676
I285424724
tp677
a(S'20140604'
p678
I275697613
tp679
a(S'20140605'
p680
I309000179
tp681
a(S'20140606'
p682
I255880246
tp683
a(S'20140607'
p684
I155141863
tp685
a(S'20140608'
p686
I181144835
tp687
a(S'20140609'
p688
I442360742
tp689
a(S'20140610'
p690
I389636668
tp691
a(S'20140611'
p692
I311384505
tp693
a(S'20140612'
p694
I267188252
tp695
a(S'20140613'
p696
I256177180
tp697
a(S'20140614'
p698
I148539864
tp699
a(S'20140615'
p700
I201999390
tp701
a(S'20140616'
p702
I336917078
tp703
a(S'20140617'
p704
I324524255
tp705
a(S'20140618'
p706
I266480068
tp707
a(S'20140619'
p708
I282577514
tp709
a(S'20140620'
p710
I226974141
tp711
a(S'20140621'
p712
I186364721
tp713
a(S'20140622'
p714
I143403001
tp715
a(S'20140623'
p716
I304220528
tp717
a(S'20140624'
p718
I298405851
tp719
a(S'20140625'
p720
I271335080
tp721
a(S'20140626'
p722
I223576983
tp723
a(S'20140627'
p724
I186455771
tp725
a(S'20140628'
p726
I181197896
tp727
a(S'20140629'
p728
I171945311
tp729
a(S'20140630'
p730
I331665096
tp731
a(S'20140701'
p732
I379361211
tp733
a(S'20140702'
p734
I301263008
tp735
a(S'20140703'
p736
I205360896
tp737
a(S'20140704'
p738
I221546458
tp739
a(S'20140705'
p740
I162447667
tp741
a(S'20140706'
p742
I163090528
tp743
a(S'20140707'
p744
I330300280
tp745
a(S'20140708'
p746
I237821679
tp747
a(S'20140709'
p748
I254180106
tp749
a(S'20140710'
p750
I277110154
tp751
a(S'20140711'
p752
I233743113
tp753
a(S'20140712'
p754
I149584303
tp755
a(S'20140713'
p756
I142610813
tp757
a(S'20140714'
p758
I246080213
tp759
a(S'20140715'
p760
I299355385
tp761
a(S'20140716'
p762
I277080654
tp763
a(S'20140717'
p764
I254493213
tp765
a(S'20140718'
p766
I191967546
tp767
a(S'20140719'
p768
I153934641
tp769
a(S'20140720'
p770
I174324225
tp771
a(S'20140721'
p772
I241509367
tp773
a(S'20140722'
p774
I222479621
tp775
a(S'20140723'
p776
I281820273
tp777
a(S'20140724'
p778
I257332381
tp779
a(S'20140725'
p780
I203397102
tp781
a(S'20140726'
p782
I198457820
tp783
a(S'20140727'
p784
I162389176
tp785
a(S'20140728'
p786
I253136439
tp787
a(S'20140729'
p788
I325692942
tp789
a(S'20140730'
p790
I239088792
tp791
a(S'20140731'
p792
I228056623
tp793
a(S'20140801'
p794
I378242546
tp795
a(S'20140802'
p796
I152120792
tp797
a(S'20140803'
p798
I154077981
tp799
a(S'20140804'
p800
I254890053
tp801
a(S'20140805'
p802
I311680953
tp803
a(S'20140806'
p804
I269143684
tp805
a(S'20140807'
p806
I256485155
tp807
a(S'20140808'
p808
I228097887
tp809
a(S'20140809'
p810
I146751994
tp811
a(S'20140810'
p812
I164174384
tp813
a(S'20140811'
p814
I284695009
tp815
a(S'20140812'
p816
I260705801
tp817
a(S'20140813'
p818
I262139305
tp819
a(S'20140814'
p820
I248894735
tp821
a(S'20140815'
p822
I268968079
tp823
a(S'20140816'
p824
I158553438
tp825
a(S'20140817'
p826
I161198309
tp827
a(S'20140818'
p828
I280533543
tp829
a(S'20140819'
p830
I236052637
tp831
a(S'20140820'
p832
I209205785
tp833
a(S'20140821'
p834
I234392568
tp835
a(S'20140822'
p836
I182566127
tp837
a(S'20140823'
p838
I154613502
tp839
a(S'20140824'
p840
I134164401
tp841
a(S'20140825'
p842
I283116043
tp843
a(S'20140826'
p844
I241046273
tp845
a(S'20140827'
p846
I227515169
tp847
a(S'20140828'
p848
I240376956
tp849
a(S'20140829'
p850
I214114844
tp851
a(S'20140830'
p852
I183547267
tp853
a(S'20140831'
p854
I205369438
tp855
a.(lp1
(S'20130701'
p2
I1238748
tp3
a(S'20130702'
p4
I3215499
tp5
a(S'20130703'
p6
I4385918
tp7
a(S'20130704'
p8
I12845583
tp9
a(S'20130705'
p10
I2551703
tp11
a(S'20130706'
p12
I2289341
tp13
a(S'20130707'
p14
I4363341
tp15
a(S'20130708'
p16
I15888356
tp17
a(S'20130709'
p18
I11374271
tp19
a(S'20130710'
p20
I18319144
tp21
a(S'20130711'
p22
I2158990
tp23
a(S'20130712'
p24
I4829301
tp25
a(S'20130713'
p26
I2218978
tp27
a(S'20130714'
p28
I3375744
tp29
a(S'20130715'
p30
I25375610
tp31
a(S'20130716'
p32
I32164805
tp33
a(S'20130717'
p34
I26631817
tp35
a(S'20130718'
p36
I8142301
tp37
a(S'20130719'
p38
I3413665
tp39
a(S'20130720'
p40
I4557888
tp41
a(S'20130721'
p42
I7068179
tp43
a(S'20130722'
p44
I9073308
tp45
a(S'20130723'
p46
I8675669
tp47
a(S'20130724'
p48
I9348626
tp49
a(S'20130725'
p50
I62652056
tp51
a(S'20130726'
p52
I11721842
tp53
a(S'20130727'
p54
I5723416
tp55
a(S'20130728'
p56
I32887218
tp57
a(S'20130729'
p58
I14375762
tp59
a(S'20130730'
p60
I16427906
tp61
a(S'20130731'
p62
I13151366
tp63
a(S'20130801'
p64
I6159040
tp65
a(S'20130802'
p66
I20410883
tp67
a(S'20130803'
p68
I24942267
tp69
a(S'20130804'
p70
I16648439
tp71
a(S'20130805'
p72
I123111835
tp73
a(S'20130806'
p74
I23304219
tp75
a(S'20130807'
p76
I13675014
tp77
a(S'20130808'
p78
I10561475
tp79
a(S'20130809'
p80
I15546146
tp81
a(S'20130810'
p82
I41942573
tp83
a(S'20130811'
p84
I5443051
tp85
a(S'20130812'
p86
I43533052
tp87
a(S'20130813'
p88
I29325894
tp89
a(S'20130814'
p90
I23721318
tp91
a(S'20130815'
p92
I21981558
tp93
a(S'20130816'
p94
I58314359
tp95
a(S'20130817'
p96
I51457176
tp97
a(S'20130818'
p98
I35585574
tp99
a(S'20130819'
p100
I27409347
tp101
a(S'20130820'
p102
I27002747
tp103
a(S'20130821'
p104
I18370111
tp105
a(S'20130822'
p106
I18620771
tp107
a(S'20130823'
p108
I16009856
tp109
a(S'20130824'
p110
I14426635
tp111
a(S'20130825'
p112
I12426430
tp113
a(S'20130826'
p114
I16794905
tp115
a(S'20130827'
p116
I23573930
tp117
a(S'20130828'
p118
I68685109
tp119
a(S'20130829'
p120
I29996101
tp121
a(S'20130830'
p122
I17631447
tp123
a(S'20130831'
p124
I12893797
tp125
a(S'20130901'
p126
I18155299
tp127
a(S'20130902'
p128
I27437595
tp129
a(S'20130903'
p130
I20886668
tp131
a(S'20130904'
p132
I23688242
tp133
a(S'20130905'
p134
I17937329
tp135
a(S'20130906'
p136
I22744929
tp137
a(S'20130907'
p138
I17830433
tp139
a(S'20130908'
p140
I19393890
tp141
a(S'20130909'
p142
I22529834
tp143
a(S'20130910'
p144
I61880908
tp145
a(S'20130911'
p146
I45646088
tp147
a(S'20130912'
p148
I16797004
tp149
a(S'20130913'
p150
I10624127
tp151
a(S'20130914'
p152
I22263774
tp153
a(S'20130915'
p154
I17385227
tp155
a(S'20130916'
p156
I14276435
tp157
a(S'20130917'
p158
I21022169
tp159
a(S'20130918'
p160
I17777697
tp161
a(S'20130919'
p162
I11095259
tp163
a(S'20130920'
p164
I15710134
tp165
a(S'20130921'
p166
I23219290
tp167
a(S'20130922'
p168
I75805107
tp169
a(S'20130923'
p170
I26564396
tp171
a(S'20130924'
p172
I26722196
tp173
a(S'20130925'
p174
I54563516
tp175
a(S'20130926'
p176
I32334604
tp177
a(S'20130927'
p178
I21422361
tp179
a(S'20130928'
p180
I37660670
tp181
a(S'20130929'
p182
I77461238
tp183
a(S'20130930'
p184
I34100714
tp185
a(S'20131001'
p186
I8869210
tp187
a(S'20131002'
p188
I10393202
tp189
a(S'20131003'
p190
I14700007
tp191
a(S'20131004'
p192
I12046540
tp193
a(S'20131005'
p194
I13019900
tp195
a(S'20131006'
p196
I14733990
tp197
a(S'20131007'
p198
I82606688
tp199
a(S'20131008'
p200
I60758100
tp201
a(S'20131009'
p202
I26611167
tp203
a(S'20131010'
p204
I36132959
tp205
a(S'20131011'
p206
I31646212
tp207
a(S'20131012'
p208
I36724035
tp209
a(S'20131013'
p210
I46888025
tp211
a(S'20131014'
p212
I41243215
tp213
a(S'20131015'
p214
I58286788
tp215
a(S'20131016'
p216
I40682099
tp217
a(S'20131017'
p218
I45517673
tp219
a(S'20131018'
p220
I29644051
tp221
a(S'20131019'
p222
I12115532
tp223
a(S'20131020'
p224
I27240757
tp225
a(S'20131021'
p226
I86625521
tp227
a(S'20131022'
p228
I29426313
tp229
a(S'20131023'
p230
I36092748
tp231
a(S'20131024'
p232
I69717843
tp233
a(S'20131025'
p234
I62677596
tp235
a(S'20131026'
p236
I27504517
tp237
a(S'20131027'
p238
I25646394
tp239
a(S'20131028'
p240
I67747746
tp241
a(S'20131029'
p242
I52687221
tp243
a(S'20131030'
p244
I63435426
tp245
a(S'20131031'
p246
I93841828
tp247
a(S'20131101'
p248
I46678116
tp249
a(S'20131102'
p250
I21879168
tp251
a(S'20131103'
p252
I33749172
tp253
a(S'20131104'
p254
I108318485
tp255
a(S'20131105'
p256
I128585154
tp257
a(S'20131106'
p258
I131796343
tp259
a(S'20131107'
p260
I149424128
tp261
a(S'20131108'
p262
I99248361
tp263
a(S'20131109'
p264
I59247170
tp265
a(S'20131110'
p266
I123840519
tp267
a(S'20131111'
p268
I246064757
tp269
a(S'20131112'
p270
I74456493
tp271
a(S'20131113'
p272
I54302781
tp273
a(S'20131114'
p274
I42611824
tp275
a(S'20131115'
p276
I44380574
tp277
a(S'20131116'
p278
I38584607
tp279
a(S'20131117'
p280
I35055232
tp281
a(S'20131118'
p282
I65817333
tp283
a(S'20131119'
p284
I60013853
tp285
a(S'20131120'
p286
I83122720
tp287
a(S'20131121'
p288
I75803920
tp289
a(S'20131122'
p290
I66623532
tp291
a(S'20131123'
p292
I88449004
tp293
a(S'20131124'
p294
I60355364
tp295
a(S'20131125'
p296
I91230946
tp297
a(S'20131126'
p298
I79919049
tp299
a(S'20131127'
p300
I178457547
tp301
a(S'20131128'
p302
I107063218
tp303
a(S'20131129'
p304
I96242909
tp305
a(S'20131130'
p306
I76461088
tp307
a(S'20131201'
p308
I95291329
tp309
a(S'20131202'
p310
I107045755
tp311
a(S'20131203'
p312
I105284341
tp313
a(S'20131204'
p314
I91187713
tp315
a(S'20131205'
p316
I75925859
tp317
a(S'20131206'
p318
I92725974
tp319
a(S'20131207'
p320
I53512763
tp321
a(S'20131208'
p322
I53648650
tp323
a(S'20131209'
p324
I152407205
tp325
a(S'20131210'
p326
I78077384
tp327
a(S'20131211'
p328
I126368276
tp329
a(S'20131212'
p330
I117455386
tp331
a(S'20131213'
p332
I83443683
tp333
a(S'20131214'
p334
I73250223
tp335
a(S'20131215'
p336
I59674345
tp337
a(S'20131216'
p338
I86266515
tp339
a(S'20131217'
p340
I109073593
tp341
a(S'20131218'
p342
I91560802
tp343
a(S'20131219'
p344
I112370684
tp345
a(S'20131220'
p346
I148188232
tp347
a(S'20131221'
p348
I59536553
tp349
a(S'20131222'
p350
I56877147
tp351
a(S'20131223'
p352
I179886396
tp353
a(S'20131224'
p354
I133342747
tp355
a(S'20131225'
p356
I212312830
tp357
a(S'20131226'
p358
I146764679
tp359
a(S'20131227'
p360
I252417542
tp361
a(S'20131228'
p362
I101848650
tp363
a(S'20131229'
p364
I74663175
tp365
a(S'20131230'
p366
I103985798
tp367
a(S'20131231'
p368
I113254499
tp369
a(S'20140101'
p370
I77073258
tp371
a(S'20140102'
p372
I124541441
tp373
a(S'20140103'
p374
I115361983
tp375
a(S'20140104'
p376
I71718874
tp377
a(S'20140105'
p378
I106824899
tp379
a(S'20140106'
p380
I139233405
tp381
a(S'20140107'
p382
I110203644
tp383
a(S'20140108'
p384
I115536959
tp385
a(S'20140109'
p386
I121195295
tp387
a(S'20140110'
p388
I119859597
tp389
a(S'20140111'
p390
I116820618
tp391
a(S'20140112'
p392
I80041533
tp393
a(S'20140113'
p394
I164389088
tp395
a(S'20140114'
p396
I194979118
tp397
a(S'20140115'
p398
I114905112
tp399
a(S'20140116'
p400
I136931314
tp401
a(S'20140117'
p402
I154263565
tp403
a(S'20140118'
p404
I107190052
tp405
a(S'20140119'
p406
I117846810
tp407
a(S'20140120'
p408
I259973410
tp409
a(S'20140121'
p410
I176724296
tp411
a(S'20140122'
p412
I183458941
tp413
a(S'20140123'
p414
I332744686
tp415
a(S'20140124'
p416
I188651670
tp417
a(S'20140125'
p418
I131010888
tp419
a(S'20140126'
p420
I214348269
tp421
a(S'20140127'
p422
I260269121
tp423
a(S'20140128'
p424
I256692351
tp425
a(S'20140129'
p426
I274603869
tp427
a(S'20140130'
p428
I99811984
tp429
a(S'20140131'
p430
I29125625
tp431
a(S'20140201'
p432
I51483587
tp433
a(S'20140202'
p434
I35016210
tp435
a(S'20140203'
p436
I92071628
tp437
a(S'20140204'
p438
I61618152
tp439
a(S'20140205'
p440
I70100225
tp441
a(S'20140206'
p442
I89786438
tp443
a(S'20140207'
p444
I356235057
tp445
a(S'20140208'
p446
I134579390
tp447
a(S'20140209'
p448
I143211947
tp449
a(S'20140210'
p450
I418611061
tp451
a(S'20140211'
p452
I315239225
tp453
a(S'20140212'
p454
I425221290
tp455
a(S'20140213'
p456
I301079648
tp457
a(S'20140214'
p458
I233371566
tp459
a(S'20140215'
p460
I110240413
tp461
a(S'20140216'
p462
I139432186
tp463
a(S'20140217'
p464
I314699059
tp465
a(S'20140218'
p466
I246229299
tp467
a(S'20140219'
p468
I247608257
tp469
a(S'20140220'
p470
I276717727
tp471
a(S'20140221'
p472
I206572952
tp473
a(S'20140222'
p474
I129881807
tp475
a(S'20140223'
p476
I237023147
tp477
a(S'20140224'
p478
I326481227
tp479
a(S'20140225'
p480
I349836501
tp481
a(S'20140226'
p482
I476270827
tp483
a(S'20140227'
p484
I660825256
tp485
a(S'20140228'
p486
I282310184
tp487
a(S'20140301'
p488
I148429245
tp489
a(S'20140302'
p490
I163786963
tp491
a(S'20140303'
p492
I360144530
tp493
a(S'20140304'
p494
I278261421
tp495
a(S'20140305'
p496
I275381156
tp497
a(S'20140306'
p498
I366030834
tp499
a(S'20140307'
p500
I274009352
tp501
a(S'20140308'
p502
I157996615
tp503
a(S'20140309'
p504
I169872578
tp505
a(S'20140310'
p506
I296534165
tp507
a(S'20140311'
p508
I267437055
tp509
a(S'20140312'
p510
I298538230
tp511
a(S'20140313'
p512
I255918695
tp513
a(S'20140314'
p514
I270497983
tp515
a(S'20140315'
p516
I242196362
tp517
a(S'20140316'
p518
I188184766
tp519
a(S'20140317'
p520
I420064650
tp521
a(S'20140318'
p522
I341931886
tp523
a(S'20140319'
p524
I414884867
tp525
a(S'20140320'
p526
I304013906
tp527
a(S'20140321'
p528
I280963645
tp529
a(S'20140322'
p530
I200897470
tp531
a(S'20140323'
p532
I160853972
tp533
a(S'20140324'
p534
I318658552
tp535
a(S'20140325'
p536
I362444778
tp537
a(S'20140326'
p538
I257938486
tp539
a(S'20140327'
p540
I326543305
tp541
a(S'20140328'
p542
I372161003
tp543
a(S'20140329'
p544
I138171183
tp545
a(S'20140330'
p546
I256893459
tp547
a(S'20140331'
p548
I497687416
tp549
a(S'20140401'
p550
I280407782
tp551
a(S'20140402'
p552
I234601543
tp553
a(S'20140403'
p554
I259172151
tp555
a(S'20140404'
p556
I171218775
tp557
a(S'20140405'
p558
I130175071
tp559
a(S'20140406'
p560
I86148848
tp561
a(S'20140407'
p562
I151211943
tp563
a(S'20140408'
p564
I241500693
tp565
a(S'20140409'
p566
I301919971
tp567
a(S'20140410'
p568
I292651452
tp569
a(S'20140411'
p570
I263431235
tp571
a(S'20140412'
p572
I177456118
tp573
a(S'20140413'
p574
I199455537
tp575
a(S'20140414'
p576
I315904149
tp577
a(S'20140415'
p578
I333481946
tp579
a(S'20140416'
p580
I258644563
tp581
a(S'20140417'
p582
I259158950
tp583
a(S'20140418'
p584
I212558260
tp585
a(S'20140419'
p586
I161932743
tp587
a(S'20140420'
p588
I175154181
tp589
a(S'20140421'
p590
I416482875
tp591
a(S'20140422'
p592
I329994810
tp593
a(S'20140423'
p594
I289670313
tp595
a(S'20140424'
p596
I348965167
tp597
a(S'20140425'
p598
I231507912
tp599
a(S'20140426'
p600
I110439209
tp601
a(S'20140427'
p602
I241292798
tp603
a(S'20140428'
p604
I413667536
tp605
a(S'20140429'
p606
I340918574
tp607
a(S'20140430'
p608
I274590040
tp609
a(S'20140501'
p610
I113440731
tp611
a(S'20140502'
p612
I103269793
tp613
a(S'20140503'
p614
I174430184
tp615
a(S'20140504'
p616
I282088123
tp617
a(S'20140505'
p618
I324920452
tp619
a(S'20140506'
p620
I295986647
tp621
a(S'20140507'
p622
I221742769
tp623
a(S'20140508'
p624
I267751934
tp625
a(S'20140509'
p626
I158473997
tp627
a(S'20140510'
p628
I258495276
tp629
a(S'20140511'
p630
I142970887
tp631
a(S'20140512'
p632
I338432936
tp633
a(S'20140513'
p634
I250343867
tp635
a(S'20140514'
p636
I297491596
tp637
a(S'20140515'
p638
I435249186
tp639
a(S'20140516'
p640
I200510199
tp641
a(S'20140517'
p642
I179594252
tp643
a(S'20140518'
p644
I145479624
tp645
a(S'20140519'
p646
I422101826
tp647
a(S'20140520'
p648
I197106347
tp649
a(S'20140521'
p650
I292385050
tp651
a(S'20140522'
p652
I295631432
tp653
a(S'20140523'
p654
I223981714
tp655
a(S'20140524'
p656
I233305829
tp657
a(S'20140525'
p658
I147245163
tp659
a(S'20140526'
p660
I415178334
tp661
a(S'20140527'
p662
I369000169
tp663
a(S'20140528'
p664
I381785376
tp665
a(S'20140529'
p666
I402129748
tp667
a(S'20140530'
p668
I276489019
tp669
a(S'20140531'
p670
I153225467
tp671
a(S'20140601'
p672
I111076626
tp673
a(S'20140602'
p674
I157408750
tp675
a(S'20140603'
p676
I372184784
tp677
a(S'20140604'
p678
I327061084
tp679
a(S'20140605'
p680
I302841375
tp681
a(S'20140606'
p682
I217295228
tp683
a(S'20140607'
p684
I206165504
tp685
a(S'20140608'
p686
I180076832
tp687
a(S'20140609'
p688
I241085611
tp689
a(S'20140610'
p690
I282137606
tp691
a(S'20140611'
p692
I277431859
tp693
a(S'20140612'
p694
I256164551
tp695
a(S'20140613'
p696
I284281673
tp697
a(S'20140614'
p698
I289810759
tp699
a(S'20140615'
p700
I217992393
tp701
a(S'20140616'
p702
I383963086
tp703
a(S'20140617'
p704
I331341050
tp705
a(S'20140618'
p706
I358972950
tp707
a(S'20140619'
p708
I322086055
tp709
a(S'20140620'
p710
I333222993
tp711
a(S'20140621'
p712
I169065467
tp713
a(S'20140622'
p714
I232029485
tp715
a(S'20140623'
p716
I444554691
tp717
a(S'20140624'
p718
I342707532
tp719
a(S'20140625'
p720
I319358448
tp721
a(S'20140626'
p722
I498151313
tp723
a(S'20140627'
p724
I307276813
tp725
a(S'20140628'
p726
I199382031
tp727
a(S'20140629'
p728
I238934317
tp729
a(S'20140630'
p730
I425796747
tp731
a(S'20140701'
p732
I358485374
tp733
a(S'20140702'
p734
I364268994
tp735
a(S'20140703'
p736
I257959811
tp737
a(S'20140704'
p738
I253548445
tp739
a(S'20140705'
p740
I168602028
tp741
a(S'20140706'
p742
I250453540
tp743
a(S'20140707'
p744
I332660498
tp745
a(S'20140708'
p746
I363952447
tp747
a(S'20140709'
p748
I308883169
tp749
a(S'20140710'
p750
I322207184
tp751
a(S'20140711'
p752
I266630674
tp753
a(S'20140712'
p754
I173485119
tp755
a(S'20140713'
p756
I218339981
tp757
a(S'20140714'
p758
I272164963
tp759
a(S'20140715'
p760
I369452520
tp761
a(S'20140716'
p762
I278415089
tp763
a(S'20140717'
p764
I204597291
tp765
a(S'20140718'
p766
I162854740
tp767
a(S'20140719'
p768
I122809272
tp769
a(S'20140720'
p770
I157986108
tp771
a(S'20140721'
p772
I325273684
tp773
a(S'20140722'
p774
I307691465
tp775
a(S'20140723'
p776
I289004852
tp777
a(S'20140724'
p778
I284291000
tp779
a(S'20140725'
p780
I233005216
tp781
a(S'20140726'
p782
I152163398
tp783
a(S'20140727'
p784
I281734449
tp785
a(S'20140728'
p786
I393656353
tp787
a(S'20140729'
p788
I185509598
tp789
a(S'20140730'
p790
I278053927
tp791
a(S'20140731'
p792
I269628521
tp793
a(S'20140801'
p794
I282593743
tp795
a(S'20140802'
p796
I162090956
tp797
a(S'20140803'
p798
I121165959
tp799
a(S'20140804'
p800
I248676024
tp801
a(S'20140805'
p802
I278473251
tp803
a(S'20140806'
p804
I247713799
tp805
a(S'20140807'
p806
I283816788
tp807
a(S'20140808'
p808
I204391027
tp809
a(S'20140809'
p810
I143619719
tp811
a(S'20140810'
p812
I223625820
tp813
a(S'20140811'
p814
I385895199
tp815
a(S'20140812'
p816
I254258310
tp817
a(S'20140813'
p818
I308734578
tp819
a(S'20140814'
p820
I252702796
tp821
a(S'20140815'
p822
I221094668
tp823
a(S'20140816'
p824
I158797400
tp825
a(S'20140817'
p826
I194379633
tp827
a(S'20140818'
p828
I385940924
tp829
a(S'20140819'
p830
I247704409
tp831
a(S'20140820'
p832
I244720592
tp833
a(S'20140821'
p834
I185570807
tp835
a(S'20140822'
p836
I232911054
tp837
a(S'20140823'
p838
I196780196
tp839
a(S'20140824'
p840
I209908787
tp841
a(S'20140825'
p842
I264492485
tp843
a(S'20140826'
p844
I271225580
tp845
a(S'20140827'
p846
I345649378
tp847
a(S'20140828'
p848
I327274182
tp849
a(S'20140829'
p850
I359195182
tp851
a(S'20140830'
p852
I201759798
tp853
a(S'20140831'
p854
I159162656
tp855
a.