c__builtin__
set
p1
((lp2
L1L
aL4L
aL23L
aL26L
aL27L
aL30L
aL31L
aL39L
aL46L
aL50L
aL53L
aL59L
aL60L
aL63L
aL64L
aL67L
aL68L
aL72L
aL76L
aL77L
aL78L
aL80L
aL86L
aL87L
aL88L
aL89L
aL92L
aL95L
aL96L
aL99L
aL101L
aL103L
aL105L
aL108L
aL110L
aL111L
aL112L
aL113L
aL114L
aL119L
aL121L
aL123L
aL124L
aL125L
aL129L
aL131L
aL140L
aL141L
aL144L
aL145L
aL153L
aL157L
aL159L
aL160L
aL166L
aL169L
aL170L
aL171L
aL172L
aL179L
aL182L
aL185L
aL187L
aL194L
aL197L
aL199L
aL201L
aL210L
aL217L
aL218L
aL221L
aL225L
aL226L
aL227L
aL228L
aL233L
aL236L
aL237L
aL238L
aL242L
aL243L
aL244L
aL246L
aL247L
aL252L
aL253L
aL255L
aL257L
aL258L
aL259L
aL263L
aL266L
aL267L
aL270L
aL271L
aL273L
aL274L
aL277L
aL279L
aL282L
aL284L
aL292L
aL293L
aL296L
aL300L
aL301L
aL306L
aL307L
aL310L
aL311L
aL315L
aL317L
aL318L
aL319L
aL321L
aL329L
aL334L
aL339L
aL341L
aL344L
aL350L
aL352L
aL354L
aL355L
aL356L
aL359L
aL362L
aL364L
aL370L
aL374L
aL377L
aL380L
aL381L
aL382L
aL386L
aL389L
aL392L
aL397L
aL398L
aL400L
aL403L
aL404L
aL414L
aL416L
aL417L
aL426L
aL427L
aL428L
aL429L
aL431L
aL433L
aL436L
aL438L
aL442L
aL447L
aL448L
aL452L
aL455L
aL458L
aL459L
aL460L
aL462L
aL467L
aL473L
aL474L
aL480L
aL482L
aL485L
aL490L
aL492L
aL496L
aL500L
aL501L
aL502L
aL503L
aL504L
aL506L
aL514L
aL515L
aL516L
aL518L
aL519L
aL520L
aL523L
aL524L
aL526L
aL529L
aL530L
aL536L
aL537L
aL538L
aL539L
aL548L
aL553L
aL554L
aL558L
aL560L
aL563L
aL564L
aL565L
aL569L
aL570L
aL571L
aL572L
aL574L
aL575L
aL576L
aL582L
aL587L
aL588L
aL590L
aL593L
aL596L
aL599L
aL601L
aL603L
aL605L
aL607L
aL613L
aL617L
aL621L
aL622L
aL626L
aL631L
aL635L
aL648L
aL653L
aL654L
aL657L
aL659L
aL662L
aL663L
aL665L
aL673L
aL674L
aL676L
aL677L
aL680L
aL683L
aL686L
aL687L
aL690L
aL691L
aL693L
aL697L
aL698L
aL701L
aL704L
aL707L
aL710L
aL712L
aL714L
aL716L
aL720L
aL727L
aL730L
aL732L
aL733L
aL738L
aL745L
aL747L
aL750L
aL761L
aL764L
aL766L
aL778L
aL781L
aL782L
aL784L
aL790L
aL795L
aL796L
aL797L
aL802L
aL804L
aL805L
aL817L
aL818L
aL826L
aL827L
aL828L
aL835L
aL837L
aL838L
aL842L
aL854L
aL857L
aL860L
aL861L
aL865L
aL867L
aL875L
aL879L
aL880L
aL882L
aL885L
aL889L
aL892L
aL893L
aL896L
aL900L
aL902L
aL904L
aL907L
aL908L
aL909L
aL919L
aL920L
aL925L
aL927L
aL928L
aL931L
aL933L
aL935L
aL936L
aL942L
aL949L
aL952L
aL956L
aL958L
aL960L
aL963L
aL972L
aL976L
aL978L
aL980L
aL983L
aL984L
aL987L
aL994L
aL1000L
aL1002L
aL1009L
aL1014L
aL1018L
aL1019L
aL1020L
aL1021L
aL1027L
aL1030L
aL1032L
aL1037L
aL1040L
aL1041L
aL1043L
aL1045L
aL1047L
aL1049L
aL1050L
aL1053L
aL1054L
aL1057L
aL1059L
aL1061L
aL1064L
aL1065L
aL1067L
aL1070L
aL1074L
aL1077L
aL1086L
aL1088L
aL1089L
aL1090L
aL1091L
aL1094L
aL1096L
aL1097L
aL1099L
aL1100L
aL1101L
aL1111L
aL1112L
aL1117L
aL1124L
aL1135L
aL1139L
aL1140L
aL1147L
aL1148L
aL1149L
aL1151L
aL1153L
aL1158L
aL1165L
aL1174L
aL1179L
aL1180L
aL1183L
aL1185L
aL1186L
aL1190L
aL1194L
aL1201L
aL1204L
aL1211L
aL1214L
aL1216L
aL1218L
aL1223L
aL1224L
aL1226L
aL1228L
aL1230L
aL1234L
aL1235L
aL1237L
aL1240L
aL1241L
aL1242L
aL1243L
aL1247L
aL1249L
aL1251L
aL1265L
aL1274L
aL1276L
aL1279L
aL1281L
aL1284L
aL1286L
aL1287L
aL1288L
aL1295L
aL1296L
aL1297L
aL1299L
aL1302L
aL1305L
aL1310L
aL1312L
aL1315L
aL1321L
aL1323L
aL1325L
aL1327L
aL1329L
aL1335L
aL1344L
aL1346L
aL1349L
aL1356L
aL1357L
aL1361L
aL1363L
aL1366L
aL1367L
aL1368L
aL1369L
aL1372L
aL1376L
aL1377L
aL1381L
aL1388L
aL1391L
aL1393L
aL1394L
aL1395L
aL1396L
aL1402L
aL1403L
aL1406L
aL1407L
aL1408L
aL1410L
aL1413L
aL1414L
aL1415L
aL1417L
aL1430L
aL1432L
aL1437L
aL1438L
aL1452L
aL1454L
aL1455L
aL1459L
aL1460L
aL1463L
aL1464L
aL1466L
aL1469L
aL1471L
aL1473L
aL1477L
aL1480L
aL1482L
aL1483L
aL1486L
aL1489L
aL1491L
aL1495L
aL1496L
aL1499L
aL1506L
aL1507L
aL1508L
aL1510L
aL1515L
aL1518L
aL1520L
aL1523L
aL1524L
aL1525L
aL1526L
aL1540L
aL1541L
aL1543L
aL1544L
aL1547L
aL1559L
aL1561L
aL1572L
aL1575L
aL1576L
aL1577L
aL1579L
aL1581L
aL1583L
aL1584L
aL1586L
aL1589L
aL1591L
aL1594L
aL1599L
aL1614L
aL1622L
aL1630L
aL1635L
aL1637L
aL1640L
aL1641L
aL1643L
aL1644L
aL1647L
aL1654L
aL1655L
aL1656L
aL1657L
aL1658L
aL1661L
aL1666L
aL1671L
aL1677L
aL1678L
aL1679L
aL1687L
aL1690L
aL1691L
aL1696L
aL1700L
aL1702L
aL1703L
aL1704L
aL1707L
aL1709L
aL1716L
aL1731L
aL1732L
aL1736L
aL1741L
aL1743L
aL1745L
aL1750L
aL1752L
aL1755L
aL1756L
aL1759L
aL1762L
aL1767L
aL1768L
aL1772L
aL1773L
aL1775L
aL1776L
aL1779L
aL1780L
aL1781L
aL1782L
aL1783L
aL1784L
aL1787L
aL1792L
aL1796L
aL1801L
aL1802L
aL1803L
aL1804L
aL1805L
aL1806L
aL1807L
aL1809L
aL1812L
aL1813L
aL1814L
aL1815L
aL1817L
aL1819L
aL1823L
aL1826L
aL1827L
aL1829L
aL1833L
aL1834L
aL1837L
aL1839L
aL1842L
aL1844L
aL1845L
aL1849L
aL1850L
aL1853L
aL1854L
aL1855L
aL1861L
aL1862L
aL1864L
aL1866L
aL1869L
aL1878L
aL1881L
aL1885L
aL1886L
aL1887L
aL1890L
aL1891L
aL1893L
aL1901L
aL1905L
aL1906L
aL1912L
aL1921L
aL1923L
aL1924L
aL1925L
aL1928L
aL1929L
aL1935L
aL1936L
aL1941L
aL1946L
aL1947L
aL1950L
aL1953L
aL1954L
aL1955L
aL1957L
aL1958L
aL1959L
aL1962L
aL1963L
aL1965L
aL1966L
aL1968L
aL1974L
aL1984L
aL1986L
aL1987L
aL1991L
aL1993L
aL1994L
aL1998L
aL2005L
aL2006L
aL2008L
aL2009L
aL2013L
aL2015L
aL2019L
aL2020L
aL2023L
aL2028L
aL2029L
aL2034L
aL2035L
aL2046L
aL2047L
aL2048L
aL2049L
aL2050L
aL2051L
aL2053L
aL2054L
aL2062L
aL2066L
aL2068L
aL2074L
aL2075L
aL2078L
aL2082L
aL2087L
aL2090L
aL2093L
aL2094L
aL2095L
aL2099L
aL2100L
aL2103L
aL2108L
aL2112L
aL2113L
aL2117L
aL2119L
aL2123L
aL2127L
aL2128L
aL2130L
aL2131L
aL2132L
aL2136L
aL2137L
aL2143L
aL2147L
aL2148L
aL2149L
aL2150L
aL2157L
aL2158L
aL2159L
aL2163L
aL2164L
aL2166L
aL2167L
aL2169L
aL2171L
aL2173L
aL2175L
aL2180L
aL2182L
aL2183L
aL2184L
aL2185L
aL2188L
aL2190L
aL2194L
aL2195L
aL2197L
aL2207L
aL2208L
aL2210L
aL2212L
aL2214L
aL2215L
aL2220L
aL2221L
aL2231L
aL2241L
aL2247L
aL2249L
aL2250L
aL2253L
aL2254L
aL2257L
aL2259L
aL2261L
aL2263L
aL2271L
aL2273L
aL2277L
aL2283L
aL2286L
aL2289L
aL2291L
aL2300L
aL2304L
aL2306L
aL2308L
aL2309L
aL2312L
aL2313L
aL2314L
aL2317L
aL2319L
aL2322L
aL2325L
aL2326L
aL2331L
aL2335L
aL2342L
aL2348L
aL2351L
aL2352L
aL2354L
aL2355L
aL2358L
aL2360L
aL2367L
aL2371L
aL2372L
aL2374L
aL2375L
aL2377L
aL2386L
aL2387L
aL2389L
aL2394L
aL2398L
aL2400L
aL2404L
aL2406L
aL2411L
aL2414L
aL2415L
aL2419L
aL2423L
aL2425L
aL2426L
aL2429L
aL2431L
aL2432L
aL2433L
aL2435L
aL2438L
aL2439L
aL2449L
aL2451L
aL2452L
aL2453L
aL2454L
aL2455L
aL2457L
aL2458L
aL2464L
aL2465L
aL2468L
aL2469L
aL2474L
aL2479L
aL2481L
aL2482L
aL2486L
aL2489L
aL2498L
aL2499L
aL2500L
aL2501L
aL2509L
aL2510L
aL2511L
aL2515L
aL2516L
aL2525L
aL2529L
aL2531L
aL2538L
aL2545L
aL2550L
aL2554L
aL2560L
aL2561L
aL2563L
aL2564L
aL2569L
aL2574L
aL2579L
aL2581L
aL2588L
aL2591L
aL2596L
aL2598L
aL2602L
aL2603L
aL2605L
aL2606L
aL2613L
aL2617L
aL2620L
aL2627L
aL2628L
aL2632L
aL2633L
aL2635L
aL2636L
aL2643L
aL2645L
aL2646L
aL2647L
aL2648L
aL2650L
aL2651L
aL2656L
aL2661L
aL2663L
aL2664L
aL2671L
aL2676L
aL2677L
aL2682L
aL2686L
aL2689L
aL2690L
aL2692L
aL2693L
aL2694L
aL2696L
aL2697L
aL2703L
aL2705L
aL2706L
aL2712L
aL2715L
aL2716L
aL2720L
aL2725L
aL2732L
aL2734L
aL2736L
aL2738L
aL2741L
aL2743L
aL2744L
aL2748L
aL2749L
aL2754L
aL2757L
aL2758L
aL2761L
aL2763L
aL2764L
aL2775L
aL2777L
aL2778L
aL2780L
aL2781L
aL2782L
aL2785L
aL2790L
aL2791L
aL2794L
aL2796L
aL2797L
aL2799L
aL2800L
aL2803L
aL2805L
aL2808L
aL2812L
aL2813L
aL2814L
aL2816L
aL2822L
aL2835L
aL2845L
aL2850L
aL2853L
aL2854L
aL2855L
aL2856L
aL2861L
aL2874L
aL2876L
aL2877L
aL2880L
aL2883L
aL2884L
aL2885L
aL2887L
aL2888L
aL2889L
aL2892L
aL2901L
aL2902L
aL2904L
aL2910L
aL2911L
aL2916L
aL2917L
aL2919L
aL2921L
aL2925L
aL2928L
aL2931L
aL2932L
aL2935L
aL2937L
aL2941L
aL2942L
aL2945L
aL2948L
aL2953L
aL2964L
aL2965L
aL2968L
aL2969L
aL2972L
aL2976L
aL2979L
aL2980L
aL2984L
aL2985L
aL2987L
aL2990L
aL2992L
aL3001L
aL3005L
aL3007L
aL3011L
aL3017L
aL3023L
aL3025L
aL3033L
aL3035L
aL3039L
aL3041L
aL3042L
aL3045L
aL3048L
aL3050L
aL3051L
aL3053L
aL3054L
aL3055L
aL3056L
aL3057L
aL3062L
aL3063L
aL3065L
aL3066L
aL3068L
aL3071L
aL3074L
aL3076L
aL3078L
aL3079L
aL3083L
aL3084L
aL3085L
aL3093L
aL3104L
aL3107L
aL3108L
aL3109L
aL3111L
aL3114L
aL3116L
aL3121L
aL3123L
aL3124L
aL3135L
aL3138L
aL3140L
aL3141L
aL3142L
aL3146L
aL3147L
aL3148L
aL3149L
aL3153L
aL3154L
aL3156L
aL3157L
aL3158L
aL3159L
aL3161L
aL3173L
aL3178L
aL3184L
aL3185L
aL3192L
aL3194L
aL3195L
aL3201L
aL3202L
aL3203L
aL3204L
aL3205L
aL3210L
aL3213L
aL3216L
aL3220L
aL3222L
aL3224L
aL3225L
aL3227L
aL3229L
aL3230L
aL3231L
aL3234L
aL3236L
aL3237L
aL3238L
aL3239L
aL3240L
aL3243L
aL3244L
aL3245L
aL3251L
aL3252L
aL3254L
aL3255L
aL3256L
aL3259L
aL3265L
aL3266L
aL3269L
aL3271L
aL3275L
aL3276L
aL3278L
aL3283L
aL3288L
aL3289L
aL3291L
aL3303L
aL3304L
aL3306L
aL3309L
aL3310L
aL3311L
aL3314L
aL3320L
aL3325L
aL3334L
aL3336L
aL3337L
aL3339L
aL3341L
aL3342L
aL3347L
aL3348L
aL3350L
aL3352L
aL3353L
aL3356L
aL3364L
aL3368L
aL3369L
aL3376L
aL3378L
aL3379L
aL3383L
aL3388L
aL3394L
aL3395L
aL3396L
aL3397L
aL3402L
aL3405L
aL3407L
aL3408L
aL3410L
aL3415L
aL3416L
aL3417L
aL3418L
aL3419L
aL3420L
aL3423L
aL3425L
aL3432L
aL3438L
aL3440L
aL3445L
aL3448L
aL3453L
aL3455L
aL3456L
aL3458L
aL3463L
aL3472L
aL3474L
aL3476L
aL3477L
aL3478L
aL3480L
aL3487L
aL3491L
aL3492L
aL3493L
aL3494L
aL3495L
aL3500L
aL3502L
aL3504L
aL3506L
aL3507L
aL3509L
aL3515L
aL3517L
aL3518L
aL3528L
aL3529L
aL3530L
aL3532L
aL3534L
aL3535L
aL3540L
aL3541L
aL3543L
aL3545L
aL3546L
aL3548L
aL3550L
aL3552L
aL3554L
aL3556L
aL3557L
aL3558L
aL3559L
aL3560L
aL3564L
aL3566L
aL3571L
aL3591L
aL3592L
aL3595L
aL3599L
aL3600L
aL3602L
aL3606L
aL3611L
aL3613L
aL3614L
aL3618L
aL3621L
aL3623L
aL3624L
aL3632L
aL3636L
aL3640L
aL3646L
aL3648L
aL3653L
aL3654L
aL3655L
aL3656L
aL3657L
aL3664L
aL3667L
aL3668L
aL3673L
aL3678L
aL3680L
aL3684L
aL3686L
aL3688L
aL3693L
aL3695L
aL3697L
aL3700L
aL3703L
aL3704L
aL3707L
aL3712L
aL3713L
aL3716L
aL3718L
aL3722L
aL3725L
aL3727L
aL3733L
aL3737L
aL3739L
aL3740L
aL3743L
aL3744L
aL3745L
aL3747L
aL3754L
aL3756L
aL3757L
aL3758L
aL3759L
aL3760L
aL3764L
aL3765L
aL3766L
aL3770L
aL3771L
aL3772L
aL3773L
aL3774L
aL3775L
aL3778L
aL3786L
aL3794L
aL3795L
aL3796L
aL3801L
aL3803L
aL3805L
aL3807L
aL3815L
aL3817L
aL3820L
aL3823L
aL3824L
aL3830L
aL3831L
aL3833L
aL3834L
aL3837L
aL3839L
aL3840L
aL3841L
aL3842L
aL3845L
aL3848L
aL3854L
aL3858L
aL3860L
aL3862L
aL3863L
aL3864L
aL3866L
aL3867L
aL3876L
aL3878L
aL3879L
aL3880L
aL3883L
aL3887L
aL3888L
aL3892L
aL3897L
aL3900L
aL3904L
aL3906L
aL3911L
aL3914L
aL3919L
aL3920L
aL3922L
aL3928L
aL3931L
aL3935L
aL3937L
aL3940L
aL3941L
aL3943L
aL3945L
aL3946L
aL3947L
aL3957L
aL3958L
aL3959L
aL3960L
aL3962L
aL3965L
aL3975L
aL3977L
aL3987L
aL3988L
aL3990L
aL3993L
aL3994L
aL3995L
aL3997L
aL4001L
aL4002L
aL4004L
aL4006L
aL4010L
aL4014L
aL4022L
aL4024L
aL4034L
aL4035L
aL4042L
aL4046L
aL4053L
aL4057L
aL4063L
aL4064L
aL4065L
aL4066L
aL4073L
aL4075L
aL4078L
aL4079L
aL4080L
aL4084L
aL4095L
aL4103L
aL4106L
aL4108L
aL4110L
aL4111L
aL4115L
aL4117L
aL4121L
aL4131L
aL4132L
aL4137L
aL4138L
aL4139L
aL4142L
aL4143L
aL4144L
aL4145L
aL4147L
aL4158L
aL4161L
aL4163L
aL4165L
aL4166L
aL4167L
aL4170L
aL4171L
aL4172L
aL4173L
aL4175L
aL4180L
aL4181L
aL4186L
aL4188L
aL4189L
aL4190L
aL4191L
aL4192L
aL4194L
aL4195L
aL4196L
aL4198L
aL4201L
aL4203L
aL4204L
aL4205L
aL4211L
aL4213L
aL4214L
aL4215L
aL4217L
aL4219L
aL4221L
aL4230L
aL4235L
aL4236L
aL4237L
aL4239L
aL4243L
aL4254L
aL4257L
aL4265L
aL4267L
aL4271L
aL4274L
aL4279L
aL4284L
aL4290L
aL4293L
aL4303L
aL4304L
aL4307L
aL4311L
aL4312L
aL4314L
aL4316L
aL4317L
aL4318L
aL4320L
aL4331L
aL4332L
aL4335L
aL4337L
aL4339L
aL4341L
aL4343L
aL4346L
aL4349L
aL4350L
aL4351L
aL4357L
aL4361L
aL4362L
aL4364L
aL4365L
aL4367L
aL4372L
aL4375L
aL4376L
aL4380L
aL4381L
aL4383L
aL4392L
aL4394L
aL4397L
aL4398L
aL4400L
aL4411L
aL4416L
aL4418L
aL4420L
aL4424L
aL4427L
aL4432L
aL4434L
aL4437L
aL4440L
aL4441L
aL4442L
aL4446L
aL4448L
aL4449L
aL4451L
aL4453L
aL4454L
aL4458L
aL4459L
aL4463L
aL4464L
aL4468L
aL4475L
aL4479L
aL4483L
aL4485L
aL4486L
aL4487L
aL4489L
aL4490L
aL4492L
aL4494L
aL4497L
aL4502L
aL4503L
aL4507L
aL4508L
aL4518L
aL4522L
aL4532L
aL4537L
aL4543L
aL4544L
aL4546L
aL4551L
aL4552L
aL4554L
aL4556L
aL4557L
aL4558L
aL4564L
aL4565L
aL4570L
aL4578L
aL4581L
aL4583L
aL4588L
aL4589L
aL4598L
aL4608L
aL4611L
aL4612L
aL4614L
aL4617L
aL4619L
aL4620L
aL4628L
aL4629L
aL4636L
aL4639L
aL4642L
aL4646L
aL4648L
aL4652L
aL4654L
aL4655L
aL4661L
aL4665L
aL4666L
aL4672L
aL4675L
aL4682L
aL4683L
aL4686L
aL4690L
aL4693L
aL4697L
aL4704L
aL4709L
aL4712L
aL4719L
aL4720L
aL4724L
aL4730L
aL4731L
aL4735L
aL4739L
aL4741L
aL4745L
aL4748L
aL4749L
aL4752L
aL4757L
aL4759L
aL4760L
aL4761L
aL4764L
aL4767L
aL4770L
aL4773L
aL4774L
aL4775L
aL4777L
aL4779L
aL4785L
aL4790L
aL4792L
aL4794L
aL4804L
aL4807L
aL4808L
aL4809L
aL4814L
aL4815L
aL4817L
aL4820L
aL4821L
aL4826L
aL4828L
aL4832L
aL4835L
aL4836L
aL4837L
aL4841L
aL4844L
aL4851L
aL4854L
aL4857L
aL4859L
aL4866L
aL4868L
aL4869L
aL4870L
aL4872L
aL4875L
aL4876L
aL4877L
aL4878L
aL4879L
aL4880L
aL4881L
aL4884L
aL4885L
aL4888L
aL4891L
aL4893L
aL4895L
aL4900L
aL4906L
aL4907L
aL4910L
aL4915L
aL4916L
aL4917L
aL4918L
aL4919L
aL4920L
aL4921L
aL4922L
aL4928L
aL4931L
aL4933L
aL4935L
aL4936L
aL4940L
aL4943L
aL4944L
aL4946L
aL4948L
aL4949L
aL4950L
aL4952L
aL4960L
aL4961L
aL4962L
aL4963L
aL4964L
aL4965L
aL4968L
aL4969L
aL4973L
aL4974L
aL4977L
aL4981L
aL4982L
aL4987L
aL4988L
aL4990L
aL4992L
aL4993L
aL4997L
aL5000L
aL5001L
aL5003L
aL5012L
aL5013L
aL5014L
aL5016L
aL5017L
aL5018L
aL5021L
aL5022L
aL5023L
aL5033L
aL5035L
aL5038L
aL5044L
aL5045L
aL5048L
aL5055L
aL5056L
aL5060L
aL5064L
aL5066L
aL5076L
aL5077L
aL5080L
aL5081L
aL5086L
aL5087L
aL5091L
aL5095L
aL5096L
aL5097L
aL5103L
aL5104L
aL5106L
aL5108L
aL5110L
aL5112L
aL5114L
aL5116L
aL5121L
aL5122L
aL5127L
aL5129L
aL5134L
aL5136L
aL5137L
aL5139L
aL5141L
aL5143L
aL5145L
aL5150L
aL5151L
aL5155L
aL5157L
aL5159L
aL5162L
aL5163L
aL5164L
aL5165L
aL5166L
aL5168L
aL5169L
aL5176L
aL5178L
aL5179L
aL5182L
aL5184L
aL5188L
aL5189L
aL5193L
aL5195L
aL5199L
aL5202L
aL5205L
aL5206L
aL5207L
aL5219L
aL5227L
aL5229L
aL5231L
aL5233L
aL5238L
aL5241L
aL5250L
aL5251L
aL5253L
aL5255L
aL5257L
aL5258L
aL5261L
aL5270L
aL5271L
aL5274L
aL5276L
aL5278L
aL5282L
aL5287L
aL5297L
aL5298L
aL5299L
aL5300L
aL5303L
aL5304L
aL5305L
aL5306L
aL5311L
aL5313L
aL5319L
aL5323L
aL5326L
aL5336L
aL5340L
aL5351L
aL5353L
aL5354L
aL5356L
aL5361L
aL5363L
aL5365L
aL5366L
aL5372L
aL5375L
aL5378L
aL5380L
aL5382L
aL5384L
aL5385L
aL5388L
aL5389L
aL5392L
aL5396L
aL5397L
aL5398L
aL5400L
aL5404L
aL5405L
aL5406L
aL5410L
aL5413L
aL5419L
aL5425L
aL5426L
aL5428L
aL5431L
aL5433L
aL5434L
aL5438L
aL5440L
aL5441L
aL5446L
aL5447L
aL5450L
aL5451L
aL5452L
aL5454L
aL5455L
aL5463L
aL5467L
aL5468L
aL5469L
aL5473L
aL5475L
aL5477L
aL5481L
aL5482L
aL5484L
aL5488L
aL5489L
aL5498L
aL5500L
aL5501L
aL5502L
aL5503L
aL5506L
aL5509L
aL5515L
aL5526L
aL5529L
aL5533L
aL5536L
aL5538L
aL5547L
aL5549L
aL5551L
aL5554L
aL5556L
aL5559L
aL5564L
aL5568L
aL5578L
aL5580L
aL5582L
aL5587L
aL5589L
aL5590L
aL5591L
aL5592L
aL5595L
aL5599L
aL5600L
aL5601L
aL5604L
aL5610L
aL5611L
aL5612L
aL5613L
aL5618L
aL5620L
aL5622L
aL5624L
aL5629L
aL5632L
aL5633L
aL5634L
aL5637L
aL5640L
aL5641L
aL5645L
aL5652L
aL5653L
aL5655L
aL5656L
aL5665L
aL5666L
aL5667L
aL5669L
aL5670L
aL5671L
aL5674L
aL5677L
aL5686L
aL5687L
aL5690L
aL5691L
aL5700L
aL5705L
aL5708L
aL5710L
aL5714L
aL5716L
aL5723L
aL5726L
aL5731L
aL5734L
aL5741L
aL5747L
aL5748L
aL5749L
aL5752L
aL5756L
aL5757L
aL5758L
aL5759L
aL5760L
aL5761L
aL5762L
aL5763L
aL5764L
aL5765L
aL5768L
aL5775L
aL5781L
aL5782L
aL5783L
aL5786L
aL5787L
aL5788L
aL5789L
aL5790L
aL5792L
aL5797L
aL5799L
aL5802L
aL5809L
aL5811L
aL5817L
aL5820L
aL5821L
aL5823L
aL5824L
aL5828L
aL5835L
aL5836L
aL5837L
aL5838L
aL5849L
aL5851L
aL5853L
aL5860L
aL5862L
aL5864L
aL5871L
aL5872L
aL5874L
aL5875L
aL5879L
aL5882L
aL5884L
aL5886L
aL5890L
aL5892L
aL5894L
aL5895L
aL5908L
aL5916L
aL5924L
aL5929L
aL5932L
aL5933L
aL5936L
aL5937L
aL5940L
aL5944L
aL5948L
aL5952L
aL5956L
aL5957L
aL5972L
aL5976L
aL5978L
aL5979L
aL5982L
aL5983L
aL5986L
aL5990L
aL5991L
aL5992L
aL5996L
aL6001L
aL6002L
aL6005L
aL6007L
aL6009L
aL6012L
aL6016L
aL6017L
aL6018L
aL6022L
aL6024L
aL6025L
aL6026L
aL6028L
aL6033L
aL6036L
aL6039L
aL6040L
aL6043L
aL6044L
aL6045L
aL6047L
aL6050L
aL6053L
aL6064L
aL6067L
aL6069L
aL6072L
aL6073L
aL6074L
aL6075L
aL6082L
aL6083L
aL6086L
aL6087L
aL6090L
aL6091L
aL6098L
aL6101L
aL6103L
aL6105L
aL6108L
aL6110L
aL6111L
aL6112L
aL6117L
aL6118L
aL6119L
aL6122L
aL6127L
aL6131L
aL6132L
aL6133L
aL6135L
aL6136L
aL6137L
aL6139L
aL6141L
aL6144L
aL6146L
aL6147L
aL6152L
aL6159L
aL6161L
aL6163L
aL6169L
aL6171L
aL6172L
aL6173L
aL6182L
aL6183L
aL6184L
aL6187L
aL6191L
aL6193L
aL6196L
aL6198L
aL6201L
aL6202L
aL6204L
aL6206L
aL6212L
aL6222L
aL6225L
aL6227L
aL6228L
aL6229L
aL6230L
aL6242L
aL6245L
aL6246L
aL6249L
aL6252L
aL6253L
aL6254L
aL6255L
aL6257L
aL6259L
aL6261L
aL6270L
aL6273L
aL6280L
aL6281L
aL6290L
aL6294L
aL6295L
aL6297L
aL6299L
aL6304L
aL6308L
aL6309L
aL6311L
aL6313L
aL6317L
aL6318L
aL6320L
aL6324L
aL6334L
aL6335L
aL6336L
aL6339L
aL6342L
aL6344L
aL6345L
aL6347L
aL6349L
aL6350L
aL6351L
aL6354L
aL6356L
aL6357L
aL6359L
aL6360L
aL6361L
aL6362L
aL6364L
aL6366L
aL6368L
aL6370L
aL6373L
aL6374L
aL6375L
aL6376L
aL6379L
aL6380L
aL6385L
aL6390L
aL6392L
aL6395L
aL6400L
aL6403L
aL6410L
aL6414L
aL6417L
aL6422L
aL6428L
aL6435L
aL6439L
aL6440L
aL6441L
aL6444L
aL6452L
aL6453L
aL6460L
aL6461L
aL6462L
aL6465L
aL6469L
aL6470L
aL6471L
aL6472L
aL6475L
aL6476L
aL6479L
aL6483L
aL6485L
aL6492L
aL6493L
aL6496L
aL6497L
aL6501L
aL6503L
aL6504L
aL6507L
aL6509L
aL6510L
aL6512L
aL6515L
aL6516L
aL6517L
aL6518L
aL6519L
aL6526L
aL6528L
aL6529L
aL6530L
aL6531L
aL6536L
aL6540L
aL6542L
aL6555L
aL6556L
aL6558L
aL6563L
aL6566L
aL6570L
aL6571L
aL6574L
aL6580L
aL6588L
aL6590L
aL6594L
aL6595L
aL6596L
aL6599L
aL6600L
aL6606L
aL6607L
aL6608L
aL6613L
aL6614L
aL6615L
aL6616L
aL6622L
aL6623L
aL6628L
aL6629L
aL6633L
aL6634L
aL6638L
aL6645L
aL6647L
aL6650L
aL6655L
aL6656L
aL6657L
aL6658L
aL6659L
aL6660L
aL6661L
aL6669L
aL6675L
aL6679L
aL6685L
aL6691L
aL6697L
aL6699L
aL6714L
aL6715L
aL6718L
aL6723L
aL6727L
aL6728L
aL6730L
aL6731L
aL6733L
aL6736L
aL6741L
aL6742L
aL6744L
aL6749L
aL6750L
aL6753L
aL6757L
aL6762L
aL6763L
aL6775L
aL6776L
aL6777L
aL6780L
aL6787L
aL6794L
aL6796L
aL6799L
aL6801L
aL6803L
aL6808L
aL6809L
aL6812L
aL6813L
aL6814L
aL6817L
aL6819L
aL6820L
aL6822L
aL6824L
aL6825L
aL6828L
aL6831L
aL6832L
aL6833L
aL6839L
aL6842L
aL6843L
aL6844L
aL6846L
aL6848L
aL6852L
aL6860L
aL6862L
aL6863L
aL6864L
aL6866L
aL6871L
aL6872L
aL6878L
aL6879L
aL6882L
aL6883L
aL6887L
aL6890L
aL6893L
aL6894L
aL6899L
aL6901L
aL6902L
aL6904L
aL6905L
aL6909L
aL6915L
aL6918L
aL6919L
aL6921L
aL6925L
aL6926L
aL6927L
aL6929L
aL6930L
aL6931L
aL6935L
aL6936L
aL6939L
aL6941L
aL6942L
aL6943L
aL6944L
aL6954L
aL6958L
aL6964L
aL6971L
aL6972L
aL6973L
aL6975L
aL6976L
aL6983L
aL6985L
aL6987L
aL6988L
aL6989L
aL6990L
aL6991L
aL6992L
aL6993L
aL6994L
aL6996L
aL6998L
aL7000L
aL7001L
aL7003L
aL7009L
aL7011L
aL7012L
aL7013L
aL7014L
aL7017L
aL7018L
aL7019L
aL7023L
aL7028L
aL7033L
aL7035L
aL7041L
aL7044L
aL7048L
aL7049L
aL7050L
aL7051L
aL7055L
aL7072L
aL7075L
aL7079L
aL7080L
aL7081L
aL7085L
aL7091L
aL7095L
aL7096L
aL7109L
aL7110L
aL7119L
aL7121L
aL7125L
aL7128L
aL7144L
aL7154L
aL7158L
aL7161L
aL7162L
aL7164L
aL7169L
aL7172L
aL7175L
aL7179L
aL7180L
aL7183L
aL7186L
aL7190L
aL7195L
aL7198L
aL7200L
aL7202L
aL7204L
aL7213L
aL7214L
aL7216L
aL7219L
aL7220L
aL7222L
aL7225L
aL7226L
aL7227L
aL7228L
aL7230L
aL7231L
aL7238L
aL7242L
aL7249L
aL7252L
aL7253L
aL7255L
aL7258L
aL7260L
aL7262L
aL7263L
aL7264L
aL7267L
aL7272L
aL7273L
aL7275L
aL7277L
aL7278L
aL7279L
aL7281L
aL7283L
aL7285L
aL7286L
aL7297L
aL7301L
aL7310L
aL7316L
aL7317L
aL7318L
aL7319L
aL7322L
aL7328L
aL7329L
aL7330L
aL7332L
aL7342L
aL7344L
aL7350L
aL7355L
aL7356L
aL7358L
aL7361L
aL7362L
aL7363L
aL7365L
aL7367L
aL7370L
aL7372L
aL7373L
aL7377L
aL7379L
aL7385L
aL7387L
aL7389L
aL7390L
aL7391L
aL7392L
aL7405L
aL7408L
aL7409L
aL7414L
aL7417L
aL7419L
aL7420L
aL7422L
aL7423L
aL7426L
aL7429L
aL7431L
aL7433L
aL7434L
aL7437L
aL7444L
aL7447L
aL7448L
aL7449L
aL7454L
aL7462L
aL7465L
aL7474L
aL7476L
aL7480L
aL7484L
aL7491L
aL7493L
aL7499L
aL7500L
aL7506L
aL7508L
aL7509L
aL7513L
aL7516L
aL7520L
aL7521L
aL7522L
aL7534L
aL7536L
aL7544L
aL7546L
aL7547L
aL7556L
aL7558L
aL7560L
aL7569L
aL7572L
aL7573L
aL7580L
aL7586L
aL7592L
aL7593L
aL7597L
aL7599L
aL7601L
aL7609L
aL7617L
aL7618L
aL7619L
aL7622L
aL7627L
aL7629L
aL7630L
aL7632L
aL7641L
aL7645L
aL7652L
aL7653L
aL7655L
aL7661L
aL7662L
aL7663L
aL7664L
aL7666L
aL7667L
aL7675L
aL7679L
aL7685L
aL7686L
aL7688L
aL7692L
aL7695L
aL7697L
aL7699L
aL7700L
aL7702L
aL7703L
aL7704L
aL7706L
aL7707L
aL7708L
aL7711L
aL7712L
aL7717L
aL7718L
aL7719L
aL7722L
aL7728L
aL7729L
aL7731L
aL7733L
aL7735L
aL7736L
aL7743L
aL7745L
aL7747L
aL7753L
aL7754L
aL7758L
aL7759L
aL7765L
aL7766L
aL7767L
aL7768L
aL7769L
aL7773L
aL7776L
aL7779L
aL7786L
aL7787L
aL7789L
aL7794L
aL7795L
aL7799L
aL7800L
aL7801L
aL7809L
aL7811L
aL7813L
aL7815L
aL7817L
aL7818L
aL7821L
aL7831L
aL7833L
aL7835L
aL7836L
aL7837L
aL7838L
aL7843L
aL7847L
aL7848L
aL7849L
aL7850L
aL7851L
aL7855L
aL7856L
aL7860L
aL7863L
aL7864L
aL7866L
aL7870L
aL7878L
aL7880L
aL7881L
aL7882L
aL7887L
aL7889L
aL7893L
aL7899L
aL7900L
aL7902L
aL7903L
aL7906L
aL7907L
aL7910L
aL7915L
aL7920L
aL7921L
aL7922L
aL7925L
aL7926L
aL7932L
aL7936L
aL7937L
aL7938L
aL7939L
aL7940L
aL7946L
aL7947L
aL7950L
aL7951L
aL7952L
aL7971L
aL7972L
aL7983L
aL7984L
aL7991L
aL7992L
aL8001L
aL8004L
aL8009L
aL8012L
aL8013L
aL8014L
aL8016L
aL8018L
aL8021L
aL8022L
aL8024L
aL8031L
aL8032L
aL8033L
aL8037L
aL8038L
aL8040L
aL8043L
aL8047L
aL8051L
aL8059L
aL8061L
aL8067L
aL8068L
aL8074L
aL8076L
aL8078L
aL8080L
aL8087L
aL8091L
aL8094L
aL8097L
aL8099L
aL8100L
aL8101L
aL8104L
aL8107L
aL8109L
aL8110L
aL8113L
aL8115L
aL8116L
aL8120L
aL8123L
aL8124L
aL8126L
aL8128L
aL8130L
aL8131L
aL8133L
aL8140L
aL8142L
aL8143L
aL8145L
aL8151L
aL8155L
aL8157L
aL8158L
aL8159L
aL8160L
aL8162L
aL8163L
aL8164L
aL8169L
aL8174L
aL8177L
aL8178L
aL8179L
aL8180L
aL8181L
aL8183L
aL8184L
aL8187L
aL8193L
aL8196L
aL8197L
aL8199L
aL8200L
aL8201L
aL8202L
aL8203L
aL8213L
aL8215L
aL8218L
aL8219L
aL8220L
aL8221L
aL8225L
aL8226L
aL8228L
aL8232L
aL8233L
aL8236L
aL8237L
aL8244L
aL8245L
aL8246L
aL8260L
aL8266L
aL8277L
aL8279L
aL8284L
aL8289L
aL8290L
aL8294L
aL8295L
aL8300L
aL8301L
aL8307L
aL8309L
aL8311L
aL8312L
aL8313L
aL8319L
aL8326L
aL8328L
aL8329L
aL8331L
aL8333L
aL8334L
aL8336L
aL8342L
aL8348L
aL8349L
aL8361L
aL8362L
aL8367L
aL8370L
aL8376L
aL8377L
aL8379L
aL8380L
aL8381L
aL8382L
aL8388L
aL8389L
aL8391L
aL8395L
aL8397L
aL8398L
aL8400L
aL8403L
aL8408L
aL8410L
aL8412L
aL8413L
aL8414L
aL8418L
aL8420L
aL8421L
aL8423L
aL8424L
aL8426L
aL8429L
aL8430L
aL8437L
aL8444L
aL8445L
aL8455L
aL8457L
aL8459L
aL8460L
aL8461L
aL8462L
aL8466L
aL8469L
aL8476L
aL8477L
aL8485L
aL8494L
aL8496L
aL8499L
aL8502L
aL8503L
aL8507L
aL8510L
aL8514L
aL8521L
aL8522L
aL8527L
aL8529L
aL8530L
aL8534L
aL8539L
aL8543L
aL8550L
aL8551L
aL8554L
aL8560L
aL8565L
aL8570L
aL8574L
aL8579L
aL8581L
aL8583L
aL8591L
aL8594L
aL8595L
aL8598L
aL8599L
aL8600L
aL8603L
aL8604L
aL8607L
aL8609L
aL8611L
aL8613L
aL8615L
aL8616L
aL8618L
aL8621L
aL8622L
aL8629L
aL8635L
aL8636L
aL8641L
aL8642L
aL8643L
aL8645L
aL8646L
aL8648L
aL8650L
aL8651L
aL8654L
aL8655L
aL8656L
aL8663L
aL8665L
aL8667L
aL8668L
aL8673L
aL8674L
aL8675L
aL8676L
aL8678L
aL8681L
aL8682L
aL8683L
aL8688L
aL8691L
aL8692L
aL8694L
aL8695L
aL8696L
aL8700L
aL8701L
aL8702L
aL8711L
aL8713L
aL8714L
aL8716L
aL8724L
aL8732L
aL8737L
aL8745L
aL8747L
aL8748L
aL8749L
aL8751L
aL8756L
aL8757L
aL8758L
aL8760L
aL8767L
aL8768L
aL8771L
aL8772L
aL8774L
aL8776L
aL8777L
aL8778L
aL8781L
aL8783L
aL8786L
aL8787L
aL8788L
aL8792L
aL8794L
aL8795L
aL8797L
aL8799L
aL8802L
aL8803L
aL8807L
aL8811L
aL8813L
aL8814L
aL8817L
aL8819L
aL8820L
aL8821L
aL8824L
aL8826L
aL8827L
aL8828L
aL8830L
aL8831L
aL8834L
aL8835L
aL8837L
aL8839L
aL8840L
aL8845L
aL8847L
aL8848L
aL8850L
aL8852L
aL8856L
aL8857L
aL8858L
aL8861L
aL8862L
aL8864L
aL8867L
aL8871L
aL8873L
aL8875L
aL8885L
aL8886L
aL8887L
aL8888L
aL8889L
aL8890L
aL8895L
aL8898L
aL8899L
aL8902L
aL8907L
aL8910L
aL8911L
aL8913L
aL8916L
aL8920L
aL8921L
aL8922L
aL8925L
aL8927L
aL8929L
aL8937L
aL8938L
aL8940L
aL8941L
aL8946L
aL8948L
aL8951L
aL8953L
aL8961L
aL8963L
aL8964L
aL8966L
aL8967L
aL8973L
aL8977L
aL8978L
aL8979L
aL8981L
aL8982L
aL8989L
aL8990L
aL8996L
aL8999L
aL9000L
aL9002L
aL9003L
aL9006L
aL9008L
aL9009L
aL9010L
aL9012L
aL9013L
aL9014L
aL9018L
aL9023L
aL9025L
aL9028L
aL9031L
aL9032L
aL9033L
aL9043L
aL9051L
aL9053L
aL9055L
aL9057L
aL9061L
aL9063L
aL9067L
aL9069L
aL9071L
aL9073L
aL9078L
aL9086L
aL9087L
aL9092L
aL9095L
aL9103L
aL9108L
aL9109L
aL9113L
aL9116L
aL9119L
aL9121L
aL9127L
aL9134L
aL9141L
aL9146L
aL9154L
aL9161L
aL9165L
aL9167L
aL9170L
aL9177L
aL9180L
aL9186L
aL9188L
aL9196L
aL9201L
aL9202L
aL9204L
aL9208L
aL9209L
aL9211L
aL9212L
aL9220L
aL9227L
aL9228L
aL9231L
aL9232L
aL9234L
aL9237L
aL9247L
aL9248L
aL9249L
aL9250L
aL9251L
aL9252L
aL9255L
aL9259L
aL9260L
aL9261L
aL9266L
aL9268L
aL9269L
aL9279L
aL9280L
aL9284L
aL9287L
aL9291L
aL9294L
aL9300L
aL9301L
aL9302L
aL9304L
aL9305L
aL9308L
aL9310L
aL9314L
aL9315L
aL9316L
aL9317L
aL9318L
aL9319L
aL9325L
aL9328L
aL9329L
aL9331L
aL9333L
aL9337L
aL9346L
aL9354L
aL9360L
aL9361L
aL9362L
aL9364L
aL9366L
aL9375L
aL9377L
aL9378L
aL9379L
aL9382L
aL9385L
aL9386L
aL9396L
aL9397L
aL9398L
aL9399L
aL9400L
aL9401L
aL9402L
aL9403L
aL9405L
aL9415L
aL9418L
aL9422L
aL9426L
aL9427L
aL9428L
aL9429L
aL9436L
aL9439L
aL9443L
aL9444L
aL9446L
aL9449L
aL9450L
aL9451L
aL9453L
aL9455L
aL9461L
aL9462L
aL9464L
aL9469L
aL9470L
aL9471L
aL9472L
aL9473L
aL9474L
aL9475L
aL9477L
aL9486L
aL9487L
aL9489L
aL9494L
aL9495L
aL9500L
aL9502L
aL9505L
aL9506L
aL9507L
aL9508L
aL9509L
aL9510L
aL9512L
aL9521L
aL9522L
aL9523L
aL9525L
aL9526L
aL9527L
aL9528L
aL9529L
aL9531L
aL9532L
aL9534L
aL9535L
aL9536L
aL9541L
aL9546L
aL9556L
aL9557L
aL9566L
aL9575L
aL9576L
aL9578L
aL9580L
aL9584L
aL9585L
aL9588L
aL9593L
aL9597L
aL9600L
aL9601L
aL9603L
aL9605L
aL9610L
aL9611L
aL9613L
aL9614L
aL9617L
aL9623L
aL9625L
aL9638L
aL9639L
aL9641L
aL9649L
aL9650L
aL9651L
aL9653L
aL9654L
aL9656L
aL9657L
aL9658L
aL9659L
aL9660L
aL9663L
aL9668L
aL9669L
aL9670L
aL9672L
aL9675L
aL9677L
aL9686L
aL9688L
aL9691L
aL9692L
aL9697L
aL9701L
aL9703L
aL9706L
aL9710L
aL9712L
aL9718L
aL9720L
aL9722L
aL9723L
aL9726L
aL9728L
aL9730L
aL9731L
aL9732L
aL9733L
aL9740L
aL9747L
aL9748L
aL9750L
aL9751L
aL9752L
aL9754L
aL9755L
aL9756L
aL9758L
aL9766L
aL9769L
aL9771L
aL9772L
aL9773L
aL9777L
aL9778L
aL9779L
aL9784L
aL9785L
aL9794L
aL9795L
aL9797L
aL9799L
aL9803L
aL9806L
aL9807L
aL9815L
aL9817L
aL9820L
aL9821L
aL9822L
aL9824L
aL9828L
aL9829L
aL9830L
aL9832L
aL9833L
aL9834L
aL9835L
aL9843L
aL9845L
aL9849L
aL9850L
aL9852L
aL9853L
aL9854L
aL9859L
aL9868L
aL9872L
aL9873L
aL9878L
aL9879L
aL9886L
aL9887L
aL9888L
aL9890L
aL9894L
aL9895L
aL9896L
aL9901L
aL9902L
aL9903L
aL9904L
aL9907L
aL9910L
aL9912L
aL9919L
aL9921L
aL9922L
aL9924L
aL9926L
aL9927L
aL9930L
aL9932L
aL9935L
aL9938L
aL9940L
aL9943L
aL9944L
aL9947L
aL9951L
aL9956L
aL9959L
aL9961L
aL9963L
aL9965L
aL9967L
aL9973L
aL9974L
aL9977L
aL9979L
aL9980L
aL9983L
aL9984L
aL9987L
aL9988L
aL9989L
aL9991L
aL9992L
aL9994L
aL9996L
aL9997L
aL9999L
aL10004L
aL10005L
aL10007L
aL10010L
aL10014L
aL10021L
aL10034L
aL10035L
aL10036L
aL10037L
aL10039L
aL10046L
aL10048L
aL10052L
aL10060L
aL10061L
aL10062L
aL10063L
aL10065L
aL10067L
aL10068L
aL10071L
aL10081L
aL10084L
aL10092L
aL10093L
aL10098L
aL10099L
aL10100L
aL10104L
aL10106L
aL10107L
aL10112L
aL10118L
aL10119L
aL10120L
aL10121L
aL10122L
aL10125L
aL10128L
aL10131L
aL10132L
aL10140L
aL10142L
aL10143L
aL10144L
aL10147L
aL10151L
aL10152L
aL10154L
aL10156L
aL10158L
aL10162L
aL10163L
aL10164L
aL10166L
aL10167L
aL10169L
aL10173L
aL10174L
aL10175L
aL10179L
aL10182L
aL10188L
aL10190L
aL10191L
aL10195L
aL10198L
aL10203L
aL10204L
aL10207L
aL10210L
aL10215L
aL10216L
aL10217L
aL10218L
aL10227L
aL10229L
aL10231L
aL10232L
aL10235L
aL10236L
aL10237L
aL10241L
aL10242L
aL10243L
aL10244L
aL10250L
aL10251L
aL10252L
aL10259L
aL10261L
aL10264L
aL10269L
aL10272L
aL10273L
aL10274L
aL10279L
aL10287L
aL10288L
aL10294L
aL10298L
aL10304L
aL10310L
aL10311L
aL10312L
aL10313L
aL10320L
aL10324L
aL10327L
aL10330L
aL10338L
aL10342L
aL10346L
aL10347L
aL10349L
aL10350L
aL10360L
aL10364L
aL10369L
aL10370L
aL10372L
aL10379L
aL10383L
aL10385L
aL10388L
aL10391L
aL10393L
aL10395L
aL10401L
aL10402L
aL10404L
aL10405L
aL10407L
aL10409L
aL10415L
aL10417L
aL10423L
aL10424L
aL10425L
aL10427L
aL10428L
aL10430L
aL10433L
aL10445L
aL10446L
aL10451L
aL10452L
aL10463L
aL10464L
aL10465L
aL10474L
aL10480L
aL10481L
aL10482L
aL10490L
aL10495L
aL10497L
aL10498L
aL10502L
aL10510L
aL10511L
aL10512L
aL10513L
aL10516L
aL10519L
aL10522L
aL10524L
aL10525L
aL10526L
aL10527L
aL10528L
aL10530L
aL10532L
aL10534L
aL10535L
aL10539L
aL10550L
aL10555L
aL10559L
aL10562L
aL10565L
aL10574L
aL10576L
aL10579L
aL10581L
aL10583L
aL10587L
aL10596L
aL10601L
aL10609L
aL10611L
aL10612L
aL10614L
aL10618L
aL10623L
aL10627L
aL10633L
aL10641L
aL10642L
aL10645L
aL10647L
aL10648L
aL10654L
aL10655L
aL10657L
aL10658L
aL10663L
aL10667L
aL10669L
aL10670L
aL10674L
aL10676L
aL10681L
aL10682L
aL10683L
aL10686L
aL10692L
aL10694L
aL10696L
aL10697L
aL10698L
aL10700L
aL10708L
aL10715L
aL10718L
aL10728L
aL10730L
aL10732L
aL10733L
aL10735L
aL10738L
aL10739L
aL10744L
aL10745L
aL10748L
aL10749L
aL10750L
aL10753L
aL10758L
aL10761L
aL10762L
aL10767L
aL10769L
aL10770L
aL10771L
aL10776L
aL10778L
aL10782L
aL10786L
aL10788L
aL10796L
aL10797L
aL10813L
aL10814L
aL10820L
aL10821L
aL10826L
aL10827L
aL10829L
aL10831L
aL10832L
aL10837L
aL10839L
aL10843L
aL10844L
aL10849L
aL10851L
aL10853L
aL10856L
aL10858L
aL10859L
aL10861L
aL10862L
aL10863L
aL10864L
aL10866L
aL10872L
aL10873L
aL10878L
aL10880L
aL10887L
aL10890L
aL10893L
aL10901L
aL10906L
aL10907L
aL10910L
aL10912L
aL10914L
aL10915L
aL10917L
aL10921L
aL10923L
aL10924L
aL10928L
aL10930L
aL10936L
aL10937L
aL10941L
aL10942L
aL10944L
aL10951L
aL10954L
aL10955L
aL10958L
aL10962L
aL10963L
aL10967L
aL10968L
aL10969L
aL10971L
aL10972L
aL10978L
aL10982L
aL10983L
aL10987L
aL10990L
aL10992L
aL10994L
aL10996L
aL10997L
aL10998L
aL11000L
aL11003L
aL11005L
aL11007L
aL11008L
aL11011L
aL11015L
aL11019L
aL11022L
aL11023L
aL11030L
aL11031L
aL11032L
aL11033L
aL11034L
aL11040L
aL11043L
aL11045L
aL11046L
aL11048L
aL11051L
aL11055L
aL11056L
aL11061L
aL11064L
aL11067L
aL11070L
aL11073L
aL11075L
aL11080L
aL11083L
aL11088L
aL11089L
aL11093L
aL11097L
aL11098L
aL11099L
aL11102L
aL11106L
aL11107L
aL11109L
aL11112L
aL11113L
aL11118L
aL11123L
aL11125L
aL11126L
aL11127L
aL11128L
aL11129L
aL11135L
aL11141L
aL11144L
aL11146L
aL11148L
aL11149L
aL11150L
aL11155L
aL11156L
aL11159L
aL11162L
aL11164L
aL11165L
aL11169L
aL11170L
aL11174L
aL11179L
aL11183L
aL11185L
aL11191L
aL11196L
aL11199L
aL11201L
aL11203L
aL11212L
aL11215L
aL11218L
aL11219L
aL11223L
aL11231L
aL11233L
aL11234L
aL11236L
aL11239L
aL11243L
aL11249L
aL11253L
aL11254L
aL11255L
aL11257L
aL11259L
aL11262L
aL11266L
aL11267L
aL11268L
aL11269L
aL11271L
aL11273L
aL11275L
aL11279L
aL11280L
aL11281L
aL11283L
aL11284L
aL11303L
aL11308L
aL11309L
aL11310L
aL11311L
aL11315L
aL11316L
aL11319L
aL11321L
aL11322L
aL11323L
aL11329L
aL11330L
aL11331L
aL11332L
aL11334L
aL11335L
aL11337L
aL11339L
aL11342L
aL11343L
aL11344L
aL11347L
aL11362L
aL11364L
aL11366L
aL11367L
aL11368L
aL11369L
aL11370L
aL11372L
aL11374L
aL11385L
aL11389L
aL11390L
aL11392L
aL11393L
aL11396L
aL11401L
aL11410L
aL11416L
aL11417L
aL11418L
aL11425L
aL11426L
aL11430L
aL11434L
aL11435L
aL11439L
aL11440L
aL11441L
aL11442L
aL11443L
aL11453L
aL11456L
aL11459L
aL11461L
aL11467L
aL11469L
aL11475L
aL11476L
aL11482L
aL11484L
aL11485L
aL11486L
aL11494L
aL11496L
aL11498L
aL11501L
aL11503L
aL11505L
aL11510L
aL11513L
aL11515L
aL11518L
aL11521L
aL11523L
aL11524L
aL11526L
aL11527L
aL11535L
aL11537L
aL11540L
aL11543L
aL11544L
aL11545L
aL11546L
aL11548L
aL11551L
aL11558L
aL11559L
aL11560L
aL11561L
aL11563L
aL11565L
aL11571L
aL11578L
aL11579L
aL11583L
aL11590L
aL11591L
aL11593L
aL11598L
aL11599L
aL11607L
aL11608L
aL11616L
aL11617L
aL11618L
aL11622L
aL11624L
aL11627L
aL11628L
aL11629L
aL11632L
aL11633L
aL11635L
aL11637L
aL11640L
aL11644L
aL11648L
aL11649L
aL11654L
aL11667L
aL11668L
aL11673L
aL11675L
aL11679L
aL11685L
aL11690L
aL11693L
aL11695L
aL11698L
aL11708L
aL11709L
aL11714L
aL11719L
aL11727L
aL11728L
aL11729L
aL11732L
aL11734L
aL11736L
aL11738L
aL11739L
aL11747L
aL11749L
aL11750L
aL11751L
aL11752L
aL11760L
aL11765L
aL11768L
aL11770L
aL11773L
aL11775L
aL11778L
aL11783L
aL11785L
aL11789L
aL11795L
aL11801L
aL11802L
aL11804L
aL11806L
aL11810L
aL11815L
aL11818L
aL11819L
aL11823L
aL11828L
aL11830L
aL11832L
aL11836L
aL11840L
aL11843L
aL11847L
aL11848L
aL11849L
aL11851L
aL11855L
aL11856L
aL11857L
aL11866L
aL11873L
aL11878L
aL11879L
aL11880L
aL11885L
aL11886L
aL11887L
aL11893L
aL11902L
aL11906L
aL11910L
aL11914L
aL11915L
aL11921L
aL11923L
aL11930L
aL11931L
aL11935L
aL11937L
aL11938L
aL11941L
aL11942L
aL11945L
aL11946L
aL11948L
aL11949L
aL11950L
aL11951L
aL11954L
aL11957L
aL11960L
aL11961L
aL11963L
aL11964L
aL11966L
aL11967L
aL11968L
aL11973L
aL11976L
aL11981L
aL11983L
aL11985L
aL11987L
aL11994L
aL11995L
aL11996L
aL11997L
aL11998L
aL11999L
aL12001L
aL12002L
aL12006L
aL12010L
aL12013L
aL12022L
aL12027L
aL12029L
aL12035L
aL12037L
aL12040L
aL12041L
aL12043L
aL12047L
aL12053L
aL12055L
aL12056L
aL12057L
aL12058L
aL12061L
aL12066L
aL12068L
aL12069L
aL12074L
aL12077L
aL12079L
aL12080L
aL12082L
aL12090L
aL12094L
aL12097L
aL12098L
aL12101L
aL12114L
aL12123L
aL12133L
aL12139L
aL12146L
aL12147L
aL12148L
aL12151L
aL12154L
aL12156L
aL12158L
aL12159L
aL12160L
aL12162L
aL12169L
aL12170L
aL12174L
aL12175L
aL12176L
aL12181L
aL12186L
aL12189L
aL12192L
aL12196L
aL12198L
aL12200L
aL12203L
aL12205L
aL12210L
aL12211L
aL12220L
aL12221L
aL12222L
aL12223L
aL12229L
aL12232L
aL12245L
aL12250L
aL12252L
aL12253L
aL12254L
aL12255L
aL12256L
aL12260L
aL12261L
aL12265L
aL12266L
aL12268L
aL12278L
aL12287L
aL12289L
aL12295L
aL12296L
aL12297L
aL12299L
aL12300L
aL12304L
aL12305L
aL12310L
aL12311L
aL12312L
aL12316L
aL12318L
aL12319L
aL12320L
aL12326L
aL12327L
aL12329L
aL12333L
aL12336L
aL12350L
aL12352L
aL12353L
aL12361L
aL12364L
aL12365L
aL12367L
aL12369L
aL12380L
aL12384L
aL12385L
aL12392L
aL12396L
aL12397L
aL12399L
aL12402L
aL12404L
aL12405L
aL12406L
aL12409L
aL12417L
aL12418L
aL12420L
aL12427L
aL12430L
aL12432L
aL12433L
aL12438L
aL12440L
aL12444L
aL12446L
aL12447L
aL12448L
aL12452L
aL12453L
aL12472L
aL12476L
aL12477L
aL12480L
aL12482L
aL12484L
aL12486L
aL12492L
aL12496L
aL12498L
aL12505L
aL12508L
aL12512L
aL12515L
aL12518L
aL12520L
aL12524L
aL12528L
aL12531L
aL12536L
aL12539L
aL12540L
aL12544L
aL12549L
aL12551L
aL12555L
aL12556L
aL12561L
aL12564L
aL12566L
aL12571L
aL12573L
aL12574L
aL12576L
aL12578L
aL12579L
aL12581L
aL12582L
aL12585L
aL12586L
aL12594L
aL12598L
aL12603L
aL12607L
aL12608L
aL12609L
aL12610L
aL12611L
aL12614L
aL12616L
aL12617L
aL12618L
aL12625L
aL12626L
aL12627L
aL12632L
aL12633L
aL12639L
aL12641L
aL12643L
aL12644L
aL12648L
aL12654L
aL12656L
aL12657L
aL12658L
aL12662L
aL12663L
aL12666L
aL12667L
aL12668L
aL12670L
aL12675L
aL12677L
aL12680L
aL12683L
aL12684L
aL12685L
aL12686L
aL12693L
aL12701L
aL12704L
aL12706L
aL12710L
aL12711L
aL12715L
aL12717L
aL12719L
aL12721L
aL12726L
aL12727L
aL12728L
aL12729L
aL12731L
aL12732L
aL12739L
aL12740L
aL12741L
aL12742L
aL12747L
aL12755L
aL12760L
aL12764L
aL12769L
aL12770L
aL12773L
aL12776L
aL12785L
aL12787L
aL12788L
aL12791L
aL12796L
aL12799L
aL12802L
aL12803L
aL12811L
aL12812L
aL12813L
aL12814L
aL12815L
aL12826L
aL12827L
aL12829L
aL12838L
aL12845L
aL12846L
aL12847L
aL12848L
aL12850L
aL12854L
aL12856L
aL12857L
aL12858L
aL12860L
aL12863L
aL12868L
aL12870L
aL12872L
aL12876L
aL12881L
aL12886L
aL12888L
aL12889L
aL12898L
aL12901L
aL12902L
aL12903L
aL12908L
aL12909L
aL12914L
aL12918L
aL12922L
aL12923L
aL12926L
aL12930L
aL12931L
aL12934L
aL12936L
aL12938L
aL12939L
aL12942L
aL12954L
aL12957L
aL12966L
aL12969L
aL12970L
aL12971L
aL12981L
aL12982L
aL12983L
aL12984L
aL12988L
aL12992L
aL12993L
aL12994L
aL13005L
aL13010L
aL13011L
aL13014L
aL13015L
aL13017L
aL13020L
aL13021L
aL13022L
aL13024L
aL13025L
aL13029L
aL13030L
aL13032L
aL13035L
aL13037L
aL13038L
aL13042L
aL13044L
aL13045L
aL13047L
aL13052L
aL13054L
aL13056L
aL13059L
aL13062L
aL13063L
aL13067L
aL13069L
aL13070L
aL13073L
aL13084L
aL13085L
aL13086L
aL13088L
aL13091L
aL13092L
aL13094L
aL13097L
aL13099L
aL13100L
aL13102L
aL13104L
aL13106L
aL13107L
aL13110L
aL13112L
aL13114L
aL13118L
aL13120L
aL13121L
aL13129L
aL13131L
aL13139L
aL13142L
aL13147L
aL13148L
aL13151L
aL13158L
aL13163L
aL13176L
aL13180L
aL13186L
aL13188L
aL13189L
aL13191L
aL13203L
aL13208L
aL13213L
aL13215L
aL13222L
aL13236L
aL13242L
aL13243L
aL13245L
aL13246L
aL13248L
aL13249L
aL13251L
aL13258L
aL13259L
aL13260L
aL13262L
aL13263L
aL13264L
aL13265L
aL13266L
aL13267L
aL13269L
aL13272L
aL13273L
aL13279L
aL13280L
aL13281L
aL13282L
aL13283L
aL13285L
aL13286L
aL13289L
aL13290L
aL13291L
aL13299L
aL13305L
aL13307L
aL13308L
aL13309L
aL13311L
aL13314L
aL13315L
aL13316L
aL13317L
aL13320L
aL13321L
aL13327L
aL13329L
aL13330L
aL13333L
aL13334L
aL13336L
aL13338L
aL13339L
aL13341L
aL13342L
aL13343L
aL13344L
aL13345L
aL13346L
aL13348L
aL13349L
aL13351L
aL13353L
aL13359L
aL13360L
aL13364L
aL13365L
aL13367L
aL13372L
aL13373L
aL13376L
aL13378L
aL13382L
aL13392L
aL13394L
aL13403L
aL13410L
aL13413L
aL13415L
aL13422L
aL13423L
aL13425L
aL13428L
aL13431L
aL13433L
aL13435L
aL13436L
aL13439L
aL13447L
aL13450L
aL13453L
aL13454L
aL13457L
aL13467L
aL13470L
aL13471L
aL13472L
aL13473L
aL13476L
aL13477L
aL13485L
aL13487L
aL13491L
aL13495L
aL13499L
aL13502L
aL13503L
aL13511L
aL13513L
aL13516L
aL13521L
aL13524L
aL13526L
aL13529L
aL13534L
aL13535L
aL13536L
aL13540L
aL13541L
aL13542L
aL13543L
aL13552L
aL13553L
aL13556L
aL13557L
aL13558L
aL13559L
aL13565L
aL13567L
aL13569L
aL13572L
aL13574L
aL13575L
aL13576L
aL13577L
aL13578L
aL13582L
aL13583L
aL13589L
aL13593L
aL13596L
aL13601L
aL13603L
aL13604L
aL13605L
aL13610L
aL13611L
aL13614L
aL13616L
aL13618L
aL13620L
aL13626L
aL13630L
aL13636L
aL13637L
aL13638L
aL13642L
aL13645L
aL13648L
aL13649L
aL13652L
aL13665L
aL13667L
aL13668L
aL13670L
aL13674L
aL13676L
aL13682L
aL13683L
aL13686L
aL13688L
aL13689L
aL13691L
aL13692L
aL13698L
aL13699L
aL13700L
aL13703L
aL13706L
aL13707L
aL13708L
aL13712L
aL13714L
aL13716L
aL13721L
aL13722L
aL13730L
aL13746L
aL13750L
aL13751L
aL13756L
aL13758L
aL13761L
aL13762L
aL13765L
aL13767L
aL13768L
aL13769L
aL13771L
aL13772L
aL13773L
aL13776L
aL13777L
aL13781L
aL13785L
aL13786L
aL13790L
aL13792L
aL13795L
aL13797L
aL13798L
aL13799L
aL13800L
aL13801L
aL13802L
aL13803L
aL13805L
aL13806L
aL13815L
aL13818L
aL13820L
aL13821L
aL13825L
aL13830L
aL13832L
aL13835L
aL13836L
aL13842L
aL13843L
aL13849L
aL13852L
aL13853L
aL13854L
aL13855L
aL13862L
aL13866L
aL13869L
aL13873L
aL13874L
aL13875L
aL13876L
aL13879L
aL13880L
aL13885L
aL13888L
aL13889L
aL13890L
aL13892L
aL13894L
aL13895L
aL13900L
aL13905L
aL13907L
aL13911L
aL13912L
aL13925L
aL13931L
aL13933L
aL13940L
aL13941L
aL13942L
aL13945L
aL13961L
aL13962L
aL13964L
aL13965L
aL13967L
aL13970L
aL13974L
aL13977L
aL13982L
aL13983L
aL13987L
aL13988L
aL13990L
aL13995L
aL14000L
aL14002L
aL14003L
aL14007L
aL14008L
aL14010L
aL14012L
aL14014L
aL14015L
aL14021L
aL14022L
aL14025L
aL14040L
aL14041L
aL14043L
aL14044L
aL14045L
aL14048L
aL14051L
aL14055L
aL14058L
aL14062L
aL14070L
aL14073L
aL14078L
aL14080L
aL14083L
aL14084L
aL14087L
aL14090L
aL14092L
aL14102L
aL14105L
aL14106L
aL14108L
aL14110L
aL14111L
aL14112L
aL14114L
aL14116L
aL14121L
aL14122L
aL14124L
aL14126L
aL14131L
aL14133L
aL14136L
aL14137L
aL14141L
aL14147L
aL14148L
aL14150L
aL14154L
aL14160L
aL14164L
aL14167L
aL14170L
aL14172L
aL14176L
aL14179L
aL14180L
aL14182L
aL14185L
aL14188L
aL14190L
aL14191L
aL14192L
aL14193L
aL14195L
aL14199L
aL14203L
aL14206L
aL14210L
aL14213L
aL14215L
aL14216L
aL14219L
aL14220L
aL14222L
aL14229L
aL14232L
aL14235L
aL14236L
aL14240L
aL14241L
aL14242L
aL14244L
aL14251L
aL14254L
aL14256L
aL14257L
aL14258L
aL14261L
aL14264L
aL14267L
aL14273L
aL14275L
aL14292L
aL14295L
aL14296L
aL14298L
aL14300L
aL14307L
aL14312L
aL14314L
aL14317L
aL14318L
aL14319L
aL14321L
aL14323L
aL14324L
aL14325L
aL14327L
aL14329L
aL14336L
aL14337L
aL14338L
aL14341L
aL14346L
aL14350L
aL14351L
aL14352L
aL14353L
aL14354L
aL14367L
aL14370L
aL14373L
aL14377L
aL14378L
aL14379L
aL14381L
aL14386L
aL14389L
aL14391L
aL14392L
aL14393L
aL14394L
aL14398L
aL14408L
aL14410L
aL14411L
aL14415L
aL14416L
aL14417L
aL14419L
aL14423L
aL14426L
aL14431L
aL14435L
aL14436L
aL14439L
aL14440L
aL14458L
aL14459L
aL14465L
aL14469L
aL14471L
aL14481L
aL14483L
aL14485L
aL14488L
aL14490L
aL14492L
aL14493L
aL14494L
aL14496L
aL14501L
aL14503L
aL14504L
aL14509L
aL14510L
aL14511L
aL14512L
aL14515L
aL14519L
aL14522L
aL14523L
aL14529L
aL14530L
aL14532L
aL14535L
aL14545L
aL14555L
aL14556L
aL14559L
aL14566L
aL14574L
aL14575L
aL14578L
aL14579L
aL14580L
aL14585L
aL14587L
aL14588L
aL14597L
aL14598L
aL14606L
aL14609L
aL14612L
aL14613L
aL14614L
aL14621L
aL14624L
aL14625L
aL14627L
aL14637L
aL14645L
aL14648L
aL14651L
aL14652L
aL14658L
aL14661L
aL14668L
aL14669L
aL14670L
aL14671L
aL14676L
aL14678L
aL14684L
aL14686L
aL14687L
aL14690L
aL14693L
aL14694L
aL14698L
aL14704L
aL14706L
aL14710L
aL14715L
aL14717L
aL14719L
aL14723L
aL14730L
aL14731L
aL14732L
aL14740L
aL14742L
aL14747L
aL14750L
aL14752L
aL14753L
aL14756L
aL14760L
aL14763L
aL14770L
aL14773L
aL14774L
aL14776L
aL14777L
aL14788L
aL14797L
aL14801L
aL14805L
aL14808L
aL14815L
aL14818L
aL14822L
aL14830L
aL14831L
aL14836L
aL14837L
aL14847L
aL14855L
aL14865L
aL14868L
aL14869L
aL14870L
aL14873L
aL14874L
aL14875L
aL14876L
aL14878L
aL14882L
aL14886L
aL14891L
aL14892L
aL14895L
aL14898L
aL14900L
aL14902L
aL14908L
aL14910L
aL14912L
aL14915L
aL14918L
aL14919L
aL14920L
aL14921L
aL14923L
aL14925L
aL14928L
aL14929L
aL14933L
aL14934L
aL14948L
aL14959L
aL14963L
aL14965L
aL14966L
aL14967L
aL14968L
aL14979L
aL14980L
aL14981L
aL14982L
aL14986L
aL14987L
aL14994L
aL14995L
aL14996L
aL15000L
aL15003L
aL15013L
aL15014L
aL15015L
aL15019L
aL15020L
aL15021L
aL15023L
aL15024L
aL15025L
aL15026L
aL15028L
aL15029L
aL15034L
aL15037L
aL15041L
aL15044L
aL15048L
aL15050L
aL15051L
aL15053L
aL15056L
aL15057L
aL15058L
aL15062L
aL15065L
aL15068L
aL15072L
aL15078L
aL15080L
aL15081L
aL15082L
aL15086L
aL15093L
aL15094L
aL15095L
aL15097L
aL15100L
aL15101L
aL15102L
aL15103L
aL15104L
aL15105L
aL15108L
aL15111L
aL15112L
aL15117L
aL15120L
aL15123L
aL15128L
aL15129L
aL15133L
aL15134L
aL15136L
aL15141L
aL15143L
aL15152L
aL15153L
aL15154L
aL15156L
aL15157L
aL15159L
aL15160L
aL15161L
aL15162L
aL15170L
aL15176L
aL15177L
aL15178L
aL15180L
aL15182L
aL15184L
aL15188L
aL15190L
aL15191L
aL15194L
aL15195L
aL15198L
aL15204L
aL15212L
aL15213L
aL15215L
aL15220L
aL15221L
aL15223L
aL15224L
aL15226L
aL15227L
aL15229L
aL15230L
aL15231L
aL15233L
aL15234L
aL15239L
aL15241L
aL15242L
aL15247L
aL15248L
aL15254L
aL15264L
aL15266L
aL15273L
aL15279L
aL15284L
aL15288L
aL15290L
aL15291L
aL15292L
aL15293L
aL15294L
aL15296L
aL15301L
aL15304L
aL15308L
aL15309L
aL15310L
aL15312L
aL15313L
aL15314L
aL15315L
aL15318L
aL15323L
aL15324L
aL15325L
aL15329L
aL15331L
aL15338L
aL15340L
aL15351L
aL15354L
aL15357L
aL15360L
aL15361L
aL15367L
aL15369L
aL15371L
aL15383L
aL15384L
aL15388L
aL15389L
aL15390L
aL15391L
aL15393L
aL15394L
aL15395L
aL15396L
aL15399L
aL15405L
aL15406L
aL15407L
aL15409L
aL15411L
aL15415L
aL15417L
aL15420L
aL15422L
aL15424L
aL15427L
aL15432L
aL15434L
aL15436L
aL15437L
aL15439L
aL15440L
aL15442L
aL15443L
aL15444L
aL15449L
aL15451L
aL15454L
aL15455L
aL15464L
aL15467L
aL15468L
aL15470L
aL15476L
aL15478L
aL15480L
aL15482L
aL15483L
aL15484L
aL15485L
aL15486L
aL15491L
aL15496L
aL15499L
aL15500L
aL15503L
aL15504L
aL15507L
aL15508L
aL15513L
aL15520L
aL15522L
aL15526L
aL15530L
aL15531L
aL15536L
aL15537L
aL15541L
aL15545L
aL15546L
aL15547L
aL15553L
aL15554L
aL15555L
aL15558L
aL15563L
aL15566L
aL15567L
aL15569L
aL15573L
aL15574L
aL15575L
aL15577L
aL15580L
aL15581L
aL15582L
aL15583L
aL15585L
aL15587L
aL15588L
aL15598L
aL15601L
aL15603L
aL15609L
aL15610L
aL15611L
aL15621L
aL15624L
aL15630L
aL15633L
aL15637L
aL15643L
aL15646L
aL15648L
aL15650L
aL15653L
aL15654L
aL15655L
aL15656L
aL15659L
aL15660L
aL15665L
aL15669L
aL15673L
aL15680L
aL15682L
aL15683L
aL15684L
aL15686L
aL15687L
aL15689L
aL15690L
aL15692L
aL15693L
aL15701L
aL15702L
aL15706L
aL15707L
aL15708L
aL15712L
aL15718L
aL15720L
aL15721L
aL15722L
aL15724L
aL15726L
aL15736L
aL15738L
aL15743L
aL15745L
aL15748L
aL15750L
aL15754L
aL15758L
aL15759L
aL15763L
aL15765L
aL15768L
aL15769L
aL15778L
aL15779L
aL15780L
aL15783L
aL15784L
aL15788L
aL15795L
aL15796L
aL15798L
aL15803L
aL15804L
aL15807L
aL15817L
aL15819L
aL15824L
aL15831L
aL15832L
aL15835L
aL15837L
aL15842L
aL15845L
aL15846L
aL15848L
aL15851L
aL15852L
aL15853L
aL15858L
aL15877L
aL15878L
aL15885L
aL15886L
aL15888L
aL15889L
aL15893L
aL15899L
aL15907L
aL15909L
aL15912L
aL15926L
aL15927L
aL15938L
aL15939L
aL15940L
aL15942L
aL15943L
aL15944L
aL15947L
aL15948L
aL15955L
aL15956L
aL15960L
aL15962L
aL15963L
aL15965L
aL15966L
aL15971L
aL15973L
aL15974L
aL15975L
aL15976L
aL15980L
aL15984L
aL15985L
aL15986L
aL15990L
aL15991L
aL15995L
aL15996L
aL15997L
aL15998L
aL16000L
aL16002L
aL16006L
aL16009L
aL16010L
aL16012L
aL16015L
aL16016L
aL16019L
aL16024L
aL16025L
aL16026L
aL16028L
aL16029L
aL16041L
aL16042L
aL16044L
aL16050L
aL16052L
aL16063L
aL16065L
aL16072L
aL16073L
aL16075L
aL16079L
aL16082L
aL16083L
aL16084L
aL16085L
aL16087L
aL16093L
aL16094L
aL16101L
aL16102L
aL16104L
aL16106L
aL16107L
aL16111L
aL16112L
aL16116L
aL16123L
aL16128L
aL16129L
aL16130L
aL16134L
aL16138L
aL16144L
aL16149L
aL16151L
aL16152L
aL16153L
aL16155L
aL16156L
aL16162L
aL16166L
aL16169L
aL16174L
aL16176L
aL16179L
aL16182L
aL16186L
aL16188L
aL16189L
aL16195L
aL16198L
aL16201L
aL16202L
aL16204L
aL16209L
aL16215L
aL16219L
aL16221L
aL16229L
aL16237L
aL16239L
aL16240L
aL16244L
aL16245L
aL16252L
aL16253L
aL16258L
aL16262L
aL16265L
aL16267L
aL16271L
aL16272L
aL16274L
aL16276L
aL16277L
aL16278L
aL16281L
aL16285L
aL16287L
aL16292L
aL16296L
aL16301L
aL16303L
aL16305L
aL16306L
aL16311L
aL16312L
aL16313L
aL16319L
aL16321L
aL16322L
aL16325L
aL16328L
aL16330L
aL16338L
aL16339L
aL16340L
aL16343L
aL16344L
aL16347L
aL16350L
aL16354L
aL16357L
aL16360L
aL16363L
aL16365L
aL16368L
aL16371L
aL16377L
aL16380L
aL16382L
aL16383L
aL16386L
aL16388L
aL16397L
aL16399L
aL16401L
aL16402L
aL16403L
aL16405L
aL16406L
aL16409L
aL16411L
aL16412L
aL16414L
aL16415L
aL16426L
aL16434L
aL16436L
aL16439L
aL16442L
aL16449L
aL16451L
aL16454L
aL16460L
aL16465L
aL16466L
aL16468L
aL16469L
aL16470L
aL16471L
aL16472L
aL16476L
aL16477L
aL16495L
aL16497L
aL16498L
aL16504L
aL16505L
aL16506L
aL16507L
aL16518L
aL16519L
aL16521L
aL16522L
aL16523L
aL16526L
aL16528L
aL16530L
aL16531L
aL16536L
aL16537L
aL16539L
aL16549L
aL16551L
aL16557L
aL16561L
aL16562L
aL16563L
aL16567L
aL16568L
aL16569L
aL16570L
aL16572L
aL16578L
aL16580L
aL16583L
aL16584L
aL16587L
aL16588L
aL16589L
aL16590L
aL16593L
aL16596L
aL16598L
aL16602L
aL16610L
aL16611L
aL16612L
aL16614L
aL16616L
aL16623L
aL16629L
aL16635L
aL16637L
aL16638L
aL16641L
aL16642L
aL16644L
aL16650L
aL16657L
aL16663L
aL16664L
aL16667L
aL16672L
aL16673L
aL16675L
aL16676L
aL16678L
aL16679L
aL16682L
aL16685L
aL16689L
aL16690L
aL16692L
aL16693L
aL16696L
aL16697L
aL16702L
aL16703L
aL16705L
aL16708L
aL16710L
aL16711L
aL16712L
aL16716L
aL16717L
aL16718L
aL16720L
aL16730L
aL16731L
aL16733L
aL16734L
aL16735L
aL16736L
aL16737L
aL16738L
aL16742L
aL16743L
aL16746L
aL16748L
aL16749L
aL16757L
aL16761L
aL16762L
aL16767L
aL16781L
aL16784L
aL16787L
aL16791L
aL16795L
aL16796L
aL16797L
aL16798L
aL16806L
aL16807L
aL16809L
aL16812L
aL16818L
aL16820L
aL16821L
aL16822L
aL16826L
aL16829L
aL16832L
aL16835L
aL16840L
aL16846L
aL16848L
aL16851L
aL16855L
aL16856L
aL16857L
aL16860L
aL16862L
aL16866L
aL16870L
aL16872L
aL16873L
aL16874L
aL16877L
aL16882L
aL16883L
aL16888L
aL16890L
aL16895L
aL16899L
aL16902L
aL16909L
aL16913L
aL16919L
aL16920L
aL16925L
aL16926L
aL16929L
aL16930L
aL16931L
aL16939L
aL16943L
aL16944L
aL16948L
aL16957L
aL16958L
aL16963L
aL16966L
aL16967L
aL16974L
aL16975L
aL16979L
aL16984L
aL16988L
aL16989L
aL16996L
aL16998L
aL16999L
aL17002L
aL17003L
aL17009L
aL17010L
aL17011L
aL17018L
aL17021L
aL17022L
aL17024L
aL17026L
aL17028L
aL17032L
aL17034L
aL17035L
aL17038L
aL17043L
aL17045L
aL17049L
aL17050L
aL17056L
aL17059L
aL17060L
aL17066L
aL17070L
aL17076L
aL17079L
aL17082L
aL17084L
aL17085L
aL17086L
aL17088L
aL17092L
aL17094L
aL17097L
aL17099L
aL17101L
aL17105L
aL17106L
aL17107L
aL17109L
aL17114L
aL17116L
aL17117L
aL17118L
aL17123L
aL17126L
aL17127L
aL17129L
aL17133L
aL17134L
aL17135L
aL17142L
aL17148L
aL17149L
aL17150L
aL17153L
aL17154L
aL17155L
aL17159L
aL17161L
aL17169L
aL17173L
aL17174L
aL17176L
aL17178L
aL17179L
aL17183L
aL17185L
aL17186L
aL17188L
aL17189L
aL17192L
aL17193L
aL17201L
aL17203L
aL17220L
aL17223L
aL17227L
aL17243L
aL17248L
aL17250L
aL17256L
aL17259L
aL17261L
aL17262L
aL17266L
aL17274L
aL17275L
aL17280L
aL17282L
aL17283L
aL17284L
aL17285L
aL17286L
aL17287L
aL17288L
aL17291L
aL17292L
aL17293L
aL17296L
aL17297L
aL17298L
aL17299L
aL17300L
aL17301L
aL17302L
aL17303L
aL17304L
aL17306L
aL17311L
aL17316L
aL17319L
aL17322L
aL17323L
aL17325L
aL17328L
aL17330L
aL17332L
aL17333L
aL17335L
aL17337L
aL17344L
aL17350L
aL17352L
aL17357L
aL17358L
aL17362L
aL17364L
aL17365L
aL17379L
aL17380L
aL17386L
aL17387L
aL17390L
aL17391L
aL17395L
aL17398L
aL17405L
aL17407L
aL17408L
aL17409L
aL17412L
aL17414L
aL17417L
aL17420L
aL17424L
aL17428L
aL17430L
aL17438L
aL17440L
aL17445L
aL17446L
aL17456L
aL17459L
aL17462L
aL17463L
aL17464L
aL17471L
aL17474L
aL17476L
aL17483L
aL17492L
aL17495L
aL17498L
aL17500L
aL17503L
aL17505L
aL17507L
aL17508L
aL17512L
aL17514L
aL17516L
aL17519L
aL17520L
aL17521L
aL17522L
aL17526L
aL17527L
aL17533L
aL17536L
aL17543L
aL17551L
aL17560L
aL17562L
aL17566L
aL17567L
aL17569L
aL17570L
aL17573L
aL17578L
aL17579L
aL17580L
aL17583L
aL17584L
aL17587L
aL17588L
aL17589L
aL17590L
aL17591L
aL17592L
aL17593L
aL17596L
aL17597L
aL17600L
aL17602L
aL17603L
aL17604L
aL17606L
aL17608L
aL17609L
aL17610L
aL17623L
aL17625L
aL17631L
aL17633L
aL17634L
aL17635L
aL17637L
aL17642L
aL17644L
aL17647L
aL17648L
aL17651L
aL17658L
aL17668L
aL17671L
aL17673L
aL17676L
aL17677L
aL17679L
aL17680L
aL17681L
aL17686L
aL17687L
aL17694L
aL17699L
aL17700L
aL17702L
aL17705L
aL17706L
aL17714L
aL17720L
aL17724L
aL17725L
aL17730L
aL17735L
aL17736L
aL17739L
aL17742L
aL17746L
aL17751L
aL17752L
aL17764L
aL17766L
aL17767L
aL17768L
aL17770L
aL17777L
aL17778L
aL17785L
aL17788L
aL17789L
aL17793L
aL17794L
aL17800L
aL17804L
aL17806L
aL17807L
aL17809L
aL17814L
aL17817L
aL17821L
aL17822L
aL17827L
aL17829L
aL17832L
aL17834L
aL17842L
aL17845L
aL17846L
aL17847L
aL17854L
aL17857L
aL17858L
aL17859L
aL17860L
aL17861L
aL17867L
aL17871L
aL17878L
aL17881L
aL17882L
aL17885L
aL17886L
aL17890L
aL17891L
aL17901L
aL17903L
aL17905L
aL17912L
aL17921L
aL17924L
aL17926L
aL17928L
aL17932L
aL17934L
aL17938L
aL17941L
aL17943L
aL17944L
aL17949L
aL17951L
aL17956L
aL17957L
aL17958L
aL17961L
aL17967L
aL17968L
aL17970L
aL17971L
aL17976L
aL17977L
aL17980L
aL17981L
aL17996L
aL18002L
aL18005L
aL18019L
aL18020L
aL18021L
aL18023L
aL18028L
aL18035L
aL18039L
aL18040L
aL18043L
aL18045L
aL18046L
aL18048L
aL18050L
aL18053L
aL18055L
aL18056L
aL18057L
aL18061L
aL18067L
aL18069L
aL18076L
aL18079L
aL18080L
aL18083L
aL18086L
aL18088L
aL18089L
aL18092L
aL18093L
aL18094L
aL18104L
aL18106L
aL18107L
aL18109L
aL18110L
aL18114L
aL18116L
aL18117L
aL18123L
aL18124L
aL18129L
aL18130L
aL18133L
aL18135L
aL18137L
aL18139L
aL18142L
aL18145L
aL18149L
aL18151L
aL18152L
aL18153L
aL18155L
aL18158L
aL18159L
aL18161L
aL18162L
aL18165L
aL18177L
aL18179L
aL18182L
aL18189L
aL18190L
aL18195L
aL18199L
aL18204L
aL18206L
aL18208L
aL18209L
aL18213L
aL18214L
aL18218L
aL18220L
aL18221L
aL18222L
aL18223L
aL18226L
aL18233L
aL18234L
aL18237L
aL18239L
aL18240L
aL18241L
aL18242L
aL18253L
aL18254L
aL18256L
aL18257L
aL18260L
aL18262L
aL18266L
aL18267L
aL18268L
aL18270L
aL18271L
aL18272L
aL18275L
aL18278L
aL18279L
aL18281L
aL18284L
aL18285L
aL18289L
aL18291L
aL18292L
aL18295L
aL18296L
aL18298L
aL18301L
aL18313L
aL18316L
aL18319L
aL18323L
aL18325L
aL18329L
aL18334L
aL18350L
aL18360L
aL18366L
aL18369L
aL18374L
aL18382L
aL18384L
aL18385L
aL18386L
aL18391L
aL18395L
aL18396L
aL18400L
aL18402L
aL18406L
aL18407L
aL18409L
aL18410L
aL18415L
aL18419L
aL18421L
aL18425L
aL18429L
aL18430L
aL18433L
aL18436L
aL18444L
aL18446L
aL18451L
aL18452L
aL18453L
aL18457L
aL18458L
aL18466L
aL18468L
aL18473L
aL18474L
aL18476L
aL18482L
aL18484L
aL18485L
aL18488L
aL18499L
aL18500L
aL18501L
aL18502L
aL18505L
aL18507L
aL18509L
aL18514L
aL18518L
aL18519L
aL18520L
aL18522L
aL18524L
aL18527L
aL18534L
aL18536L
aL18537L
aL18540L
aL18541L
aL18547L
aL18549L
aL18550L
aL18553L
aL18555L
aL18560L
aL18564L
aL18567L
aL18568L
aL18571L
aL18577L
aL18582L
aL18588L
aL18590L
aL18593L
aL18602L
aL18607L
aL18608L
aL18611L
aL18623L
aL18625L
aL18632L
aL18633L
aL18634L
aL18637L
aL18647L
aL18649L
aL18652L
aL18655L
aL18657L
aL18665L
aL18667L
aL18672L
aL18674L
aL18677L
aL18678L
aL18682L
aL18684L
aL18685L
aL18689L
aL18695L
aL18698L
aL18703L
aL18705L
aL18707L
aL18710L
aL18713L
aL18714L
aL18716L
aL18718L
aL18721L
aL18725L
aL18726L
aL18729L
aL18740L
aL18741L
aL18747L
aL18749L
aL18753L
aL18760L
aL18761L
aL18770L
aL18772L
aL18779L
aL18780L
aL18782L
aL18783L
aL18784L
aL18786L
aL18787L
aL18794L
aL18795L
aL18798L
aL18799L
aL18801L
aL18807L
aL18808L
aL18813L
aL18815L
aL18818L
aL18820L
aL18822L
aL18825L
aL18827L
aL18828L
aL18830L
aL18837L
aL18839L
aL18842L
aL18843L
aL18846L
aL18851L
aL18856L
aL18859L
aL18861L
aL18864L
aL18870L
aL18872L
aL18878L
aL18881L
aL18882L
aL18883L
aL18884L
aL18886L
aL18887L
aL18891L
aL18899L
aL18902L
aL18907L
aL18912L
aL18919L
aL18927L
aL18929L
aL18931L
aL18932L
aL18934L
aL18935L
aL18938L
aL18942L
aL18943L
aL18948L
aL18953L
aL18954L
aL18957L
aL18961L
aL18968L
aL18970L
aL18971L
aL18973L
aL18974L
aL18978L
aL18981L
aL18982L
aL18986L
aL18987L
aL18990L
aL18992L
aL18999L
aL19000L
aL19002L
aL19003L
aL19005L
aL19006L
aL19009L
aL19012L
aL19018L
aL19019L
aL19029L
aL19031L
aL19032L
aL19036L
aL19039L
aL19040L
aL19041L
aL19046L
aL19048L
aL19051L
aL19052L
aL19055L
aL19072L
aL19079L
aL19080L
aL19082L
aL19085L
aL19089L
aL19091L
aL19100L
aL19101L
aL19105L
aL19107L
aL19108L
aL19112L
aL19114L
aL19116L
aL19117L
aL19121L
aL19124L
aL19125L
aL19126L
aL19127L
aL19129L
aL19134L
aL19141L
aL19150L
aL19155L
aL19157L
aL19167L
aL19168L
aL19172L
aL19173L
aL19174L
aL19175L
aL19176L
aL19179L
aL19183L
aL19186L
aL19188L
aL19189L
aL19190L
aL19194L
aL19198L
aL19199L
aL19201L
aL19204L
aL19205L
aL19208L
aL19212L
aL19214L
aL19216L
aL19218L
aL19220L
aL19221L
aL19222L
aL19230L
aL19237L
aL19238L
aL19241L
aL19245L
aL19246L
aL19247L
aL19248L
aL19251L
aL19252L
aL19254L
aL19255L
aL19258L
aL19262L
aL19263L
aL19265L
aL19267L
aL19269L
aL19272L
aL19274L
aL19275L
aL19282L
aL19283L
aL19292L
aL19295L
aL19298L
aL19301L
aL19302L
aL19304L
aL19306L
aL19308L
aL19312L
aL19314L
aL19316L
aL19320L
aL19333L
aL19339L
aL19340L
aL19341L
aL19349L
aL19352L
aL19354L
aL19355L
aL19357L
aL19365L
aL19367L
aL19369L
aL19370L
aL19373L
aL19375L
aL19377L
aL19379L
aL19383L
aL19384L
aL19387L
aL19389L
aL19391L
aL19398L
aL19399L
aL19403L
aL19404L
aL19408L
aL19410L
aL19411L
aL19413L
aL19418L
aL19419L
aL19420L
aL19421L
aL19422L
aL19424L
aL19426L
aL19431L
aL19432L
aL19433L
aL19434L
aL19436L
aL19437L
aL19442L
aL19443L
aL19446L
aL19448L
aL19451L
aL19452L
aL19460L
aL19461L
aL19462L
aL19466L
aL19468L
aL19471L
aL19477L
aL19479L
aL19481L
aL19487L
aL19492L
aL19496L
aL19502L
aL19505L
aL19507L
aL19508L
aL19512L
aL19514L
aL19518L
aL19520L
aL19522L
aL19523L
aL19527L
aL19528L
aL19530L
aL19531L
aL19532L
aL19536L
aL19537L
aL19539L
aL19540L
aL19541L
aL19549L
aL19554L
aL19567L
aL19573L
aL19581L
aL19582L
aL19585L
aL19586L
aL19587L
aL19588L
aL19589L
aL19599L
aL19600L
aL19603L
aL19607L
aL19611L
aL19616L
aL19620L
aL19621L
aL19624L
aL19632L
aL19634L
aL19635L
aL19636L
aL19638L
aL19642L
aL19644L
aL19645L
aL19646L
aL19650L
aL19651L
aL19652L
aL19653L
aL19655L
aL19657L
aL19658L
aL19660L
aL19661L
aL19665L
aL19666L
aL19668L
aL19669L
aL19670L
aL19675L
aL19676L
aL19677L
aL19680L
aL19682L
aL19683L
aL19687L
aL19691L
aL19692L
aL19694L
aL19696L
aL19697L
aL19702L
aL19703L
aL19706L
aL19711L
aL19712L
aL19720L
aL19721L
aL19722L
aL19723L
aL19724L
aL19725L
aL19727L
aL19732L
aL19734L
aL19737L
aL19743L
aL19747L
aL19748L
aL19754L
aL19757L
aL19758L
aL19765L
aL19766L
aL19767L
aL19768L
aL19769L
aL19772L
aL19774L
aL19775L
aL19776L
aL19779L
aL19788L
aL19791L
aL19793L
aL19794L
aL19796L
aL19798L
aL19802L
aL19804L
aL19805L
aL19806L
aL19807L
aL19808L
aL19810L
aL19813L
aL19816L
aL19818L
aL19819L
aL19820L
aL19821L
aL19823L
aL19829L
aL19831L
aL19832L
aL19834L
aL19835L
aL19837L
aL19838L
aL19839L
aL19841L
aL19842L
aL19846L
aL19847L
aL19853L
aL19858L
aL19860L
aL19861L
aL19862L
aL19868L
aL19869L
aL19871L
aL19873L
aL19875L
aL19877L
aL19878L
aL19879L
aL19883L
aL19889L
aL19891L
aL19893L
aL19903L
aL19909L
aL19930L
aL19931L
aL19936L
aL19939L
aL19942L
aL19943L
aL19944L
aL19951L
aL19954L
aL19957L
aL19961L
aL19969L
aL19977L
aL19981L
aL19988L
aL19994L
aL19996L
aL19999L
aL20000L
aL20001L
aL20003L
aL20011L
aL20016L
aL20017L
aL20018L
aL20026L
aL20027L
aL20028L
aL20033L
aL20034L
aL20037L
aL20038L
aL20041L
aL20043L
aL20044L
aL20045L
aL20047L
aL20048L
aL20049L
aL20054L
aL20055L
aL20056L
aL20060L
aL20064L
aL20066L
aL20067L
aL20074L
aL20076L
aL20077L
aL20078L
aL20081L
aL20082L
aL20088L
aL20095L
aL20096L
aL20097L
aL20104L
aL20108L
aL20109L
aL20113L
aL20123L
aL20126L
aL20129L
aL20130L
aL20133L
aL20134L
aL20139L
aL20140L
aL20143L
aL20144L
aL20148L
aL20150L
aL20155L
aL20162L
aL20170L
aL20171L
aL20173L
aL20175L
aL20181L
aL20183L
aL20186L
aL20193L
aL20196L
aL20198L
aL20202L
aL20205L
aL20210L
aL20212L
aL20213L
aL20215L
aL20218L
aL20221L
aL20226L
aL20228L
aL20229L
aL20231L
aL20233L
aL20237L
aL20238L
aL20241L
aL20242L
aL20243L
aL20245L
aL20246L
aL20247L
aL20248L
aL20252L
aL20255L
aL20256L
aL20258L
aL20259L
aL20264L
aL20266L
aL20270L
aL20271L
aL20274L
aL20275L
aL20278L
aL20280L
aL20281L
aL20282L
aL20283L
aL20287L
aL20288L
aL20292L
aL20293L
aL20294L
aL20298L
aL20301L
aL20303L
aL20304L
aL20306L
aL20314L
aL20320L
aL20322L
aL20328L
aL20329L
aL20336L
aL20337L
aL20349L
aL20350L
aL20351L
aL20353L
aL20355L
aL20361L
aL20365L
aL20372L
aL20375L
aL20378L
aL20384L
aL20391L
aL20392L
aL20393L
aL20395L
aL20400L
aL20403L
aL20409L
aL20417L
aL20419L
aL20424L
aL20426L
aL20427L
aL20428L
aL20430L
aL20433L
aL20435L
aL20436L
aL20437L
aL20441L
aL20442L
aL20443L
aL20446L
aL20447L
aL20449L
aL20450L
aL20451L
aL20455L
aL20457L
aL20462L
aL20465L
aL20474L
aL20475L
aL20476L
aL20483L
aL20484L
aL20485L
aL20489L
aL20494L
aL20495L
aL20501L
aL20503L
aL20507L
aL20509L
aL20511L
aL20513L
aL20516L
aL20518L
aL20520L
aL20521L
aL20522L
aL20526L
aL20528L
aL20534L
aL20538L
aL20539L
aL20542L
aL20543L
aL20544L
aL20546L
aL20550L
aL20553L
aL20554L
aL20558L
aL20565L
aL20577L
aL20580L
aL20581L
aL20583L
aL20584L
aL20587L
aL20589L
aL20592L
aL20595L
aL20597L
aL20600L
aL20601L
aL20602L
aL20604L
aL20605L
aL20607L
aL20609L
aL20611L
aL20613L
aL20616L
aL20621L
aL20625L
aL20626L
aL20632L
aL20636L
aL20640L
aL20641L
aL20643L
aL20644L
aL20645L
aL20647L
aL20650L
aL20652L
aL20654L
aL20657L
aL20659L
aL20666L
aL20670L
aL20677L
aL20682L
aL20683L
aL20693L
aL20695L
aL20698L
aL20700L
aL20702L
aL20703L
aL20704L
aL20705L
aL20709L
aL20713L
aL20714L
aL20721L
aL20725L
aL20731L
aL20733L
aL20734L
aL20739L
aL20741L
aL20745L
aL20750L
aL20751L
aL20759L
aL20763L
aL20764L
aL20769L
aL20770L
aL20775L
aL20780L
aL20782L
aL20788L
aL20792L
aL20797L
aL20799L
aL20800L
aL20807L
aL20808L
aL20811L
aL20813L
aL20817L
aL20821L
aL20823L
aL20825L
aL20828L
aL20832L
aL20839L
aL20840L
aL20842L
aL20845L
aL20849L
aL20853L
aL20855L
aL20857L
aL20863L
aL20864L
aL20868L
aL20873L
aL20874L
aL20875L
aL20877L
aL20881L
aL20884L
aL20885L
aL20886L
aL20889L
aL20891L
aL20898L
aL20899L
aL20900L
aL20901L
aL20905L
aL20911L
aL20913L
aL20914L
aL20921L
aL20922L
aL20923L
aL20925L
aL20926L
aL20928L
aL20930L
aL20932L
aL20933L
aL20940L
aL20941L
aL20945L
aL20947L
aL20950L
aL20951L
aL20958L
aL20959L
aL20961L
aL20962L
aL20965L
aL20969L
aL20971L
aL20974L
aL20975L
aL20977L
aL20992L
aL20996L
aL20999L
aL21001L
aL21003L
aL21004L
aL21008L
aL21009L
aL21010L
aL21012L
aL21018L
aL21020L
aL21022L
aL21023L
aL21029L
aL21031L
aL21035L
aL21038L
aL21039L
aL21040L
aL21046L
aL21049L
aL21055L
aL21056L
aL21064L
aL21068L
aL21070L
aL21071L
aL21073L
aL21076L
aL21077L
aL21079L
aL21081L
aL21082L
aL21083L
aL21087L
aL21088L
aL21089L
aL21093L
aL21094L
aL21095L
aL21099L
aL21101L
aL21107L
aL21110L
aL21111L
aL21116L
aL21121L
aL21123L
aL21129L
aL21130L
aL21134L
aL21136L
aL21137L
aL21138L
aL21139L
aL21141L
aL21142L
aL21144L
aL21152L
aL21154L
aL21161L
aL21162L
aL21165L
aL21166L
aL21170L
aL21172L
aL21175L
aL21179L
aL21182L
aL21184L
aL21186L
aL21188L
aL21189L
aL21192L
aL21195L
aL21199L
aL21201L
aL21232L
aL21233L
aL21248L
aL21251L
aL21252L
aL21254L
aL21259L
aL21260L
aL21261L
aL21262L
aL21263L
aL21265L
aL21267L
aL21269L
aL21270L
aL21275L
aL21277L
aL21280L
aL21282L
aL21287L
aL21290L
aL21291L
aL21294L
aL21297L
aL21300L
aL21301L
aL21302L
aL21306L
aL21311L
aL21318L
aL21321L
aL21323L
aL21324L
aL21326L
aL21334L
aL21341L
aL21342L
aL21346L
aL21348L
aL21349L
aL21350L
aL21351L
aL21356L
aL21358L
aL21360L
aL21362L
aL21363L
aL21364L
aL21366L
aL21367L
aL21371L
aL21373L
aL21381L
aL21382L
aL21384L
aL21388L
aL21389L
aL21391L
aL21392L
aL21394L
aL21395L
aL21398L
aL21402L
aL21403L
aL21404L
aL21406L
aL21411L
aL21412L
aL21418L
aL21419L
aL21420L
aL21421L
aL21423L
aL21430L
aL21431L
aL21436L
aL21444L
aL21448L
aL21451L
aL21452L
aL21457L
aL21460L
aL21461L
aL21466L
aL21467L
aL21468L
aL21473L
aL21474L
aL21476L
aL21477L
aL21480L
aL21488L
aL21489L
aL21490L
aL21492L
aL21493L
aL21495L
aL21497L
aL21503L
aL21505L
aL21510L
aL21511L
aL21512L
aL21513L
aL21514L
aL21515L
aL21517L
aL21526L
aL21527L
aL21528L
aL21533L
aL21536L
aL21537L
aL21539L
aL21541L
aL21542L
aL21547L
aL21549L
aL21550L
aL21557L
aL21559L
aL21565L
aL21566L
aL21568L
aL21569L
aL21570L
aL21577L
aL21581L
aL21584L
aL21587L
aL21589L
aL21590L
aL21591L
aL21593L
aL21595L
aL21596L
aL21597L
aL21599L
aL21601L
aL21608L
aL21609L
aL21610L
aL21611L
aL21615L
aL21620L
aL21621L
aL21630L
aL21638L
aL21642L
aL21644L
aL21646L
aL21647L
aL21654L
aL21661L
aL21666L
aL21671L
aL21676L
aL21680L
aL21681L
aL21682L
aL21683L
aL21685L
aL21688L
aL21690L
aL21691L
aL21692L
aL21694L
aL21695L
aL21699L
aL21705L
aL21708L
aL21709L
aL21713L
aL21714L
aL21715L
aL21717L
aL21719L
aL21720L
aL21726L
aL21730L
aL21731L
aL21732L
aL21735L
aL21738L
aL21741L
aL21746L
aL21749L
aL21750L
aL21751L
aL21755L
aL21759L
aL21761L
aL21762L
aL21765L
aL21766L
aL21768L
aL21769L
aL21771L
aL21772L
aL21778L
aL21779L
aL21780L
aL21783L
aL21784L
aL21785L
aL21789L
aL21791L
aL21792L
aL21793L
aL21795L
aL21807L
aL21808L
aL21809L
aL21810L
aL21812L
aL21817L
aL21819L
aL21828L
aL21829L
aL21830L
aL21832L
aL21834L
aL21837L
aL21841L
aL21845L
aL21846L
aL21848L
aL21850L
aL21851L
aL21857L
aL21858L
aL21859L
aL21861L
aL21862L
aL21863L
aL21864L
aL21865L
aL21866L
aL21867L
aL21869L
aL21875L
aL21876L
aL21878L
aL21880L
aL21882L
aL21888L
aL21890L
aL21894L
aL21903L
aL21905L
aL21911L
aL21912L
aL21914L
aL21916L
aL21917L
aL21920L
aL21924L
aL21927L
aL21928L
aL21929L
aL21931L
aL21933L
aL21935L
aL21936L
aL21939L
aL21942L
aL21944L
aL21948L
aL21951L
aL21952L
aL21953L
aL21955L
aL21958L
aL21960L
aL21965L
aL21966L
aL21974L
aL21975L
aL21978L
aL21979L
aL21982L
aL21985L
aL21986L
aL21997L
aL21999L
aL22001L
aL22003L
aL22005L
aL22008L
aL22010L
aL22014L
aL22018L
aL22019L
aL22020L
aL22027L
aL22028L
aL22030L
aL22031L
aL22043L
aL22044L
aL22047L
aL22048L
aL22049L
aL22050L
aL22052L
aL22053L
aL22054L
aL22057L
aL22058L
aL22062L
aL22063L
aL22065L
aL22066L
aL22067L
aL22072L
aL22075L
aL22080L
aL22081L
aL22082L
aL22083L
aL22085L
aL22088L
aL22092L
aL22093L
aL22098L
aL22101L
aL22102L
aL22103L
aL22104L
aL22105L
aL22106L
aL22107L
aL22109L
aL22111L
aL22112L
aL22115L
aL22119L
aL22120L
aL22122L
aL22125L
aL22127L
aL22129L
aL22133L
aL22134L
aL22138L
aL22140L
aL22149L
aL22151L
aL22158L
aL22159L
aL22166L
aL22168L
aL22170L
aL22173L
aL22174L
aL22175L
aL22176L
aL22179L
aL22181L
aL22185L
aL22186L
aL22190L
aL22191L
aL22194L
aL22195L
aL22196L
aL22197L
aL22199L
aL22200L
aL22202L
aL22207L
aL22213L
aL22216L
aL22220L
aL22223L
aL22233L
aL22235L
aL22237L
aL22238L
aL22241L
aL22243L
aL22244L
aL22255L
aL22257L
aL22258L
aL22262L
aL22265L
aL22272L
aL22280L
aL22282L
aL22284L
aL22285L
aL22286L
aL22293L
aL22294L
aL22295L
aL22297L
aL22301L
aL22302L
aL22307L
aL22309L
aL22311L
aL22313L
aL22318L
aL22321L
aL22324L
aL22325L
aL22326L
aL22327L
aL22329L
aL22331L
aL22335L
aL22344L
aL22346L
aL22347L
aL22350L
aL22353L
aL22358L
aL22359L
aL22360L
aL22371L
aL22372L
aL22375L
aL22380L
aL22387L
aL22388L
aL22389L
aL22392L
aL22398L
aL22399L
aL22402L
aL22404L
aL22409L
aL22410L
aL22412L
aL22415L
aL22416L
aL22421L
aL22424L
aL22426L
aL22428L
aL22432L
aL22436L
aL22441L
aL22444L
aL22447L
aL22449L
aL22452L
aL22453L
aL22455L
aL22457L
aL22459L
aL22461L
aL22470L
aL22474L
aL22476L
aL22477L
aL22479L
aL22480L
aL22484L
aL22487L
aL22492L
aL22496L
aL22497L
aL22501L
aL22510L
aL22511L
aL22515L
aL22516L
aL22517L
aL22525L
aL22527L
aL22528L
aL22529L
aL22534L
aL22537L
aL22539L
aL22541L
aL22550L
aL22554L
aL22555L
aL22558L
aL22565L
aL22566L
aL22567L
aL22568L
aL22572L
aL22576L
aL22578L
aL22579L
aL22580L
aL22582L
aL22584L
aL22586L
aL22590L
aL22600L
aL22601L
aL22602L
aL22603L
aL22608L
aL22609L
aL22610L
aL22615L
aL22617L
aL22622L
aL22625L
aL22629L
aL22635L
aL22637L
aL22641L
aL22645L
aL22646L
aL22652L
aL22654L
aL22658L
aL22661L
aL22671L
aL22672L
aL22674L
aL22680L
aL22691L
aL22697L
aL22704L
aL22706L
aL22707L
aL22709L
aL22713L
aL22715L
aL22717L
aL22723L
aL22725L
aL22728L
aL22729L
aL22743L
aL22744L
aL22746L
aL22748L
aL22753L
aL22754L
aL22755L
aL22757L
aL22759L
aL22762L
aL22764L
aL22765L
aL22768L
aL22778L
aL22779L
aL22782L
aL22788L
aL22789L
aL22799L
aL22801L
aL22803L
aL22808L
aL22815L
aL22816L
aL22817L
aL22819L
aL22822L
aL22826L
aL22828L
aL22829L
aL22836L
aL22840L
aL22841L
aL22844L
aL22846L
aL22848L
aL22849L
aL22851L
aL22852L
aL22854L
aL22856L
aL22858L
aL22861L
aL22870L
aL22871L
aL22873L
aL22874L
aL22876L
aL22878L
aL22881L
aL22891L
aL22893L
aL22895L
aL22897L
aL22899L
aL22901L
aL22904L
aL22905L
aL22909L
aL22912L
aL22918L
aL22921L
aL22924L
aL22926L
aL22931L
aL22933L
aL22934L
aL22935L
aL22939L
aL22942L
aL22944L
aL22945L
aL22948L
aL22949L
aL22954L
aL22955L
aL22957L
aL22958L
aL22960L
aL22971L
aL22974L
aL22979L
aL22980L
aL22981L
aL22982L
aL22986L
aL22991L
aL22993L
aL22995L
aL22997L
aL22998L
aL22999L
aL23002L
aL23003L
aL23004L
aL23006L
aL23008L
aL23009L
aL23010L
aL23011L
aL23016L
aL23024L
aL23025L
aL23026L
aL23030L
aL23032L
aL23036L
aL23039L
aL23040L
aL23042L
aL23043L
aL23045L
aL23047L
aL23051L
aL23052L
aL23053L
aL23062L
aL23063L
aL23069L
aL23072L
aL23073L
aL23076L
aL23081L
aL23083L
aL23084L
aL23087L
aL23089L
aL23091L
aL23093L
aL23094L
aL23097L
aL23098L
aL23103L
aL23116L
aL23119L
aL23121L
aL23123L
aL23124L
aL23125L
aL23126L
aL23129L
aL23131L
aL23134L
aL23139L
aL23146L
aL23150L
aL23151L
aL23152L
aL23154L
aL23164L
aL23165L
aL23169L
aL23170L
aL23172L
aL23177L
aL23180L
aL23182L
aL23186L
aL23187L
aL23188L
aL23192L
aL23194L
aL23197L
aL23198L
aL23205L
aL23208L
aL23209L
aL23210L
aL23215L
aL23218L
aL23220L
aL23222L
aL23225L
aL23228L
aL23232L
aL23236L
aL23237L
aL23239L
aL23243L
aL23245L
aL23249L
aL23250L
aL23254L
aL23255L
aL23256L
aL23260L
aL23263L
aL23266L
aL23269L
aL23271L
aL23273L
aL23276L
aL23277L
aL23278L
aL23281L
aL23283L
aL23286L
aL23287L
aL23288L
aL23296L
aL23299L
aL23300L
aL23303L
aL23304L
aL23305L
aL23309L
aL23312L
aL23313L
aL23317L
aL23318L
aL23326L
aL23328L
aL23334L
aL23345L
aL23348L
aL23352L
aL23354L
aL23357L
aL23360L
aL23366L
aL23367L
aL23370L
aL23374L
aL23375L
aL23378L
aL23382L
aL23384L
aL23385L
aL23387L
aL23390L
aL23393L
aL23394L
aL23396L
aL23397L
aL23399L
aL23401L
aL23403L
aL23409L
aL23412L
aL23417L
aL23418L
aL23421L
aL23427L
aL23430L
aL23434L
aL23446L
aL23448L
aL23449L
aL23451L
aL23454L
aL23457L
aL23459L
aL23461L
aL23464L
aL23466L
aL23468L
aL23469L
aL23476L
aL23477L
aL23482L
aL23484L
aL23485L
aL23490L
aL23492L
aL23496L
aL23497L
aL23507L
aL23508L
aL23511L
aL23514L
aL23515L
aL23517L
aL23519L
aL23523L
aL23531L
aL23533L
aL23538L
aL23539L
aL23541L
aL23548L
aL23551L
aL23552L
aL23553L
aL23555L
aL23559L
aL23563L
aL23565L
aL23567L
aL23568L
aL23578L
aL23580L
aL23583L
aL23584L
aL23595L
aL23597L
aL23600L
aL23601L
aL23606L
aL23607L
aL23612L
aL23615L
aL23616L
aL23617L
aL23620L
aL23621L
aL23627L
aL23632L
aL23635L
aL23639L
aL23644L
aL23645L
aL23646L
aL23648L
aL23650L
aL23652L
aL23653L
aL23660L
aL23664L
aL23666L
aL23667L
aL23669L
aL23672L
aL23673L
aL23680L
aL23681L
aL23683L
aL23684L
aL23685L
aL23687L
aL23690L
aL23691L
aL23694L
aL23695L
aL23701L
aL23703L
aL23711L
aL23713L
aL23714L
aL23715L
aL23718L
aL23721L
aL23724L
aL23726L
aL23728L
aL23731L
aL23734L
aL23735L
aL23737L
aL23738L
aL23740L
aL23744L
aL23753L
aL23759L
aL23760L
aL23761L
aL23765L
aL23768L
aL23776L
aL23777L
aL23779L
aL23780L
aL23786L
aL23787L
aL23791L
aL23794L
aL23796L
aL23798L
aL23799L
aL23802L
aL23803L
aL23806L
aL23810L
aL23813L
aL23814L
aL23815L
aL23816L
aL23818L
aL23824L
aL23829L
aL23833L
aL23835L
aL23836L
aL23837L
aL23840L
aL23841L
aL23842L
aL23843L
aL23844L
aL23851L
aL23852L
aL23855L
aL23856L
aL23864L
aL23872L
aL23874L
aL23878L
aL23889L
aL23892L
aL23893L
aL23900L
aL23903L
aL23907L
aL23910L
aL23914L
aL23915L
aL23919L
aL23925L
aL23931L
aL23933L
aL23938L
aL23942L
aL23943L
aL23944L
aL23948L
aL23950L
aL23951L
aL23953L
aL23955L
aL23956L
aL23960L
aL23961L
aL23963L
aL23965L
aL23966L
aL23967L
aL23970L
aL23973L
aL23977L
aL23978L
aL23983L
aL23984L
aL23990L
aL23991L
aL23999L
aL24001L
aL24003L
aL24008L
aL24009L
aL24011L
aL24016L
aL24018L
aL24021L
aL24022L
aL24029L
aL24031L
aL24034L
aL24038L
aL24045L
aL24047L
aL24048L
aL24049L
aL24050L
aL24051L
aL24058L
aL24059L
aL24062L
aL24063L
aL24064L
aL24066L
aL24071L
aL24072L
aL24073L
aL24074L
aL24088L
aL24096L
aL24100L
aL24102L
aL24103L
aL24106L
aL24109L
aL24114L
aL24116L
aL24119L
aL24121L
aL24122L
aL24131L
aL24132L
aL24137L
aL24139L
aL24143L
aL24147L
aL24149L
aL24150L
aL24152L
aL24153L
aL24156L
aL24166L
aL24172L
aL24176L
aL24179L
aL24182L
aL24187L
aL24189L
aL24196L
aL24197L
aL24200L
aL24205L
aL24206L
aL24209L
aL24211L
aL24214L
aL24229L
aL24230L
aL24237L
aL24238L
aL24239L
aL24243L
aL24244L
aL24247L
aL24248L
aL24249L
aL24251L
aL24252L
aL24253L
aL24255L
aL24257L
aL24260L
aL24270L
aL24271L
aL24276L
aL24277L
aL24279L
aL24280L
aL24281L
aL24283L
aL24285L
aL24288L
aL24289L
aL24290L
aL24292L
aL24294L
aL24298L
aL24301L
aL24302L
aL24303L
aL24304L
aL24305L
aL24307L
aL24308L
aL24309L
aL24313L
aL24315L
aL24317L
aL24320L
aL24325L
aL24326L
aL24329L
aL24337L
aL24340L
aL24346L
aL24353L
aL24358L
aL24359L
aL24366L
aL24369L
aL24370L
aL24381L
aL24382L
aL24384L
aL24387L
aL24391L
aL24394L
aL24396L
aL24399L
aL24403L
aL24404L
aL24406L
aL24409L
aL24410L
aL24414L
aL24416L
aL24417L
aL24418L
aL24420L
aL24425L
aL24427L
aL24429L
aL24431L
aL24436L
aL24437L
aL24438L
aL24439L
aL24440L
aL24447L
aL24452L
aL24455L
aL24456L
aL24457L
aL24458L
aL24459L
aL24461L
aL24462L
aL24463L
aL24466L
aL24468L
aL24471L
aL24472L
aL24474L
aL24476L
aL24477L
aL24479L
aL24482L
aL24483L
aL24489L
aL24490L
aL24493L
aL24494L
aL24507L
aL24508L
aL24512L
aL24513L
aL24514L
aL24516L
aL24518L
aL24524L
aL24529L
aL24530L
aL24532L
aL24534L
aL24536L
aL24537L
aL24538L
aL24540L
aL24544L
aL24546L
aL24547L
aL24548L
aL24550L
aL24551L
aL24554L
aL24559L
aL24561L
aL24563L
aL24564L
aL24575L
aL24579L
aL24580L
aL24583L
aL24592L
aL24597L
aL24604L
aL24610L
aL24611L
aL24612L
aL24614L
aL24616L
aL24617L
aL24623L
aL24630L
aL24632L
aL24635L
aL24638L
aL24641L
aL24642L
aL24643L
aL24645L
aL24646L
aL24650L
aL24653L
aL24656L
aL24658L
aL24663L
aL24665L
aL24669L
aL24672L
aL24673L
aL24675L
aL24677L
aL24680L
aL24682L
aL24683L
aL24689L
aL24691L
aL24692L
aL24698L
aL24701L
aL24704L
aL24705L
aL24714L
aL24717L
aL24718L
aL24721L
aL24731L
aL24732L
aL24735L
aL24737L
aL24739L
aL24741L
aL24748L
aL24750L
aL24751L
aL24752L
aL24756L
aL24757L
aL24763L
aL24765L
aL24766L
aL24768L
aL24770L
aL24772L
aL24776L
aL24782L
aL24784L
aL24785L
aL24788L
aL24789L
aL24792L
aL24795L
aL24798L
aL24799L
aL24801L
aL24807L
aL24813L
aL24814L
aL24816L
aL24817L
aL24819L
aL24821L
aL24823L
aL24825L
aL24827L
aL24828L
aL24839L
aL24840L
aL24842L
aL24843L
aL24844L
aL24845L
aL24847L
aL24849L
aL24861L
aL24865L
aL24866L
aL24870L
aL24876L
aL24881L
aL24883L
aL24884L
aL24885L
aL24892L
aL24895L
aL24898L
aL24904L
aL24910L
aL24915L
aL24919L
aL24922L
aL24923L
aL24927L
aL24928L
aL24929L
aL24932L
aL24944L
aL24950L
aL24951L
aL24958L
aL24963L
aL24970L
aL24972L
aL24976L
aL24979L
aL24980L
aL24982L
aL24983L
aL24986L
aL24989L
aL24990L
aL24994L
aL24995L
aL24998L
aL25001L
aL25003L
aL25007L
aL25010L
aL25011L
aL25013L
aL25015L
aL25017L
aL25018L
aL25020L
aL25021L
aL25024L
aL25025L
aL25026L
aL25032L
aL25037L
aL25039L
aL25041L
aL25042L
aL25047L
aL25055L
aL25058L
aL25061L
aL25065L
aL25066L
aL25070L
aL25072L
aL25073L
aL25076L
aL25091L
aL25094L
aL25097L
aL25098L
aL25104L
aL25107L
aL25110L
aL25111L
aL25115L
aL25120L
aL25125L
aL25126L
aL25130L
aL25134L
aL25136L
aL25140L
aL25141L
aL25144L
aL25145L
aL25147L
aL25148L
aL25151L
aL25153L
aL25155L
aL25157L
aL25158L
aL25160L
aL25163L
aL25168L
aL25169L
aL25176L
aL25179L
aL25180L
aL25182L
aL25185L
aL25191L
aL25193L
aL25194L
aL25208L
aL25213L
aL25214L
aL25216L
aL25222L
aL25227L
aL25230L
aL25231L
aL25236L
aL25239L
aL25248L
aL25251L
aL25254L
aL25256L
aL25259L
aL25260L
aL25266L
aL25269L
aL25271L
aL25273L
aL25275L
aL25278L
aL25279L
aL25285L
aL25289L
aL25290L
aL25291L
aL25292L
aL25296L
aL25298L
aL25301L
aL25304L
aL25307L
aL25311L
aL25314L
aL25316L
aL25318L
aL25321L
aL25324L
aL25328L
aL25330L
aL25333L
aL25334L
aL25336L
aL25337L
aL25340L
aL25341L
aL25343L
aL25344L
aL25345L
aL25347L
aL25350L
aL25351L
aL25353L
aL25358L
aL25363L
aL25364L
aL25367L
aL25368L
aL25371L
aL25374L
aL25379L
aL25382L
aL25390L
aL25391L
aL25393L
aL25396L
aL25402L
aL25403L
aL25409L
aL25416L
aL25421L
aL25423L
aL25428L
aL25431L
aL25435L
aL25438L
aL25441L
aL25445L
aL25446L
aL25453L
aL25455L
aL25456L
aL25457L
aL25461L
aL25462L
aL25467L
aL25468L
aL25469L
aL25472L
aL25474L
aL25475L
aL25476L
aL25492L
aL25498L
aL25499L
aL25501L
aL25502L
aL25505L
aL25512L
aL25513L
aL25515L
aL25517L
aL25519L
aL25521L
aL25522L
aL25524L
aL25525L
aL25531L
aL25533L
aL25534L
aL25538L
aL25539L
aL25540L
aL25543L
aL25545L
aL25546L
aL25547L
aL25548L
aL25549L
aL25551L
aL25554L
aL25555L
aL25562L
aL25565L
aL25570L
aL25577L
aL25581L
aL25583L
aL25584L
aL25590L
aL25594L
aL25596L
aL25597L
aL25599L
aL25604L
aL25607L
aL25608L
aL25615L
aL25621L
aL25623L
aL25624L
aL25626L
aL25634L
aL25635L
aL25638L
aL25642L
aL25648L
aL25651L
aL25652L
aL25653L
aL25655L
aL25656L
aL25659L
aL25661L
aL25672L
aL25677L
aL25682L
aL25683L
aL25686L
aL25690L
aL25693L
aL25695L
aL25696L
aL25699L
aL25701L
aL25704L
aL25705L
aL25707L
aL25708L
aL25715L
aL25717L
aL25720L
aL25721L
aL25724L
aL25727L
aL25732L
aL25734L
aL25737L
aL25746L
aL25748L
aL25752L
aL25753L
aL25757L
aL25758L
aL25767L
aL25770L
aL25777L
aL25780L
aL25783L
aL25785L
aL25786L
aL25793L
aL25796L
aL25797L
aL25799L
aL25802L
aL25807L
aL25808L
aL25812L
aL25813L
aL25816L
aL25818L
aL25819L
aL25826L
aL25828L
aL25835L
aL25836L
aL25837L
aL25843L
aL25845L
aL25847L
aL25852L
aL25853L
aL25859L
aL25863L
aL25864L
aL25867L
aL25868L
aL25869L
aL25870L
aL25873L
aL25874L
aL25875L
aL25878L
aL25882L
aL25886L
aL25887L
aL25889L
aL25892L
aL25894L
aL25896L
aL25904L
aL25906L
aL25908L
aL25909L
aL25916L
aL25919L
aL25922L
aL25923L
aL25925L
aL25926L
aL25928L
aL25929L
aL25932L
aL25934L
aL25941L
aL25942L
aL25943L
aL25944L
aL25945L
aL25949L
aL25955L
aL25956L
aL25957L
aL25959L
aL25961L
aL25962L
aL25966L
aL25971L
aL25972L
aL25978L
aL25986L
aL25988L
aL25992L
aL25993L
aL26000L
aL26003L
aL26004L
aL26005L
aL26009L
aL26014L
aL26016L
aL26018L
aL26021L
aL26022L
aL26029L
aL26030L
aL26031L
aL26032L
aL26034L
aL26036L
aL26037L
aL26038L
aL26042L
aL26043L
aL26044L
aL26046L
aL26047L
aL26049L
aL26050L
aL26059L
aL26065L
aL26071L
aL26072L
aL26074L
aL26086L
aL26092L
aL26094L
aL26095L
aL26099L
aL26100L
aL26105L
aL26112L
aL26116L
aL26117L
aL26118L
aL26119L
aL26120L
aL26121L
aL26122L
aL26125L
aL26126L
aL26127L
aL26128L
aL26136L
aL26137L
aL26138L
aL26140L
aL26142L
aL26146L
aL26147L
aL26151L
aL26153L
aL26157L
aL26162L
aL26163L
aL26164L
aL26165L
aL26167L
aL26168L
aL26170L
aL26172L
aL26176L
aL26177L
aL26179L
aL26183L
aL26185L
aL26189L
aL26191L
aL26192L
aL26193L
aL26201L
aL26203L
aL26207L
aL26210L
aL26211L
aL26212L
aL26213L
aL26215L
aL26216L
aL26223L
aL26224L
aL26227L
aL26229L
aL26233L
aL26234L
aL26235L
aL26241L
aL26247L
aL26248L
aL26249L
aL26254L
aL26255L
aL26261L
aL26264L
aL26267L
aL26268L
aL26271L
aL26273L
aL26275L
aL26277L
aL26279L
aL26283L
aL26289L
aL26290L
aL26296L
aL26305L
aL26307L
aL26309L
aL26312L
aL26317L
aL26319L
aL26325L
aL26330L
aL26331L
aL26333L
aL26334L
aL26340L
aL26341L
aL26343L
aL26344L
aL26347L
aL26349L
aL26352L
aL26354L
aL26356L
aL26361L
aL26363L
aL26365L
aL26366L
aL26371L
aL26372L
aL26373L
aL26375L
aL26381L
aL26382L
aL26389L
aL26391L
aL26392L
aL26393L
aL26398L
aL26403L
aL26405L
aL26407L
aL26408L
aL26409L
aL26419L
aL26421L
aL26423L
aL26428L
aL26431L
aL26432L
aL26435L
aL26440L
aL26447L
aL26451L
aL26452L
aL26453L
aL26457L
aL26462L
aL26463L
aL26464L
aL26467L
aL26471L
aL26475L
aL26476L
aL26477L
aL26482L
aL26484L
aL26486L
aL26487L
aL26496L
aL26504L
aL26506L
aL26508L
aL26510L
aL26514L
aL26515L
aL26522L
aL26524L
aL26527L
aL26531L
aL26532L
aL26536L
aL26538L
aL26543L
aL26556L
aL26557L
aL26560L
aL26561L
aL26562L
aL26564L
aL26568L
aL26569L
aL26570L
aL26573L
aL26574L
aL26577L
aL26579L
aL26581L
aL26584L
aL26585L
aL26588L
aL26590L
aL26596L
aL26597L
aL26601L
aL26603L
aL26608L
aL26611L
aL26621L
aL26624L
aL26626L
aL26627L
aL26632L
aL26635L
aL26639L
aL26641L
aL26642L
aL26649L
aL26650L
aL26655L
aL26656L
aL26657L
aL26660L
aL26664L
aL26669L
aL26673L
aL26675L
aL26676L
aL26681L
aL26686L
aL26687L
aL26688L
aL26689L
aL26693L
aL26695L
aL26702L
aL26704L
aL26706L
aL26707L
aL26717L
aL26718L
aL26720L
aL26721L
aL26722L
aL26723L
aL26727L
aL26729L
aL26730L
aL26736L
aL26737L
aL26741L
aL26742L
aL26748L
aL26755L
aL26756L
aL26757L
aL26759L
aL26765L
aL26766L
aL26768L
aL26770L
aL26774L
aL26775L
aL26777L
aL26778L
aL26786L
aL26793L
aL26795L
aL26800L
aL26806L
aL26808L
aL26810L
aL26814L
aL26815L
aL26818L
aL26822L
aL26823L
aL26824L
aL26825L
aL26826L
aL26833L
aL26836L
aL26841L
aL26842L
aL26844L
aL26845L
aL26846L
aL26849L
aL26850L
aL26852L
aL26854L
aL26855L
aL26856L
aL26858L
aL26859L
aL26860L
aL26861L
aL26864L
aL26869L
aL26870L
aL26872L
aL26878L
aL26885L
aL26886L
aL26901L
aL26902L
aL26905L
aL26907L
aL26909L
aL26910L
aL26912L
aL26913L
aL26914L
aL26915L
aL26920L
aL26921L
aL26922L
aL26923L
aL26933L
aL26935L
aL26939L
aL26940L
aL26944L
aL26947L
aL26949L
aL26951L
aL26952L
aL26954L
aL26957L
aL26963L
aL26964L
aL26966L
aL26967L
aL26975L
aL26976L
aL26977L
aL26980L
aL26983L
aL26984L
aL26985L
aL26988L
aL26993L
aL26995L
aL26996L
aL26998L
aL27004L
aL27006L
aL27007L
aL27009L
aL27010L
aL27012L
aL27013L
aL27014L
aL27015L
aL27016L
aL27021L
aL27027L
aL27030L
aL27033L
aL27036L
aL27037L
aL27038L
aL27039L
aL27047L
aL27048L
aL27052L
aL27054L
aL27055L
aL27056L
aL27061L
aL27065L
aL27069L
aL27070L
aL27072L
aL27075L
aL27080L
aL27086L
aL27093L
aL27101L
aL27103L
aL27107L
aL27109L
aL27116L
aL27118L
aL27119L
aL27120L
aL27126L
aL27128L
aL27129L
aL27130L
aL27135L
aL27142L
aL27143L
aL27146L
aL27150L
aL27152L
aL27155L
aL27157L
aL27161L
aL27162L
aL27169L
aL27170L
aL27185L
aL27189L
aL27190L
aL27193L
aL27199L
aL27205L
aL27206L
aL27207L
aL27214L
aL27218L
aL27222L
aL27223L
aL27227L
aL27231L
aL27234L
aL27238L
aL27240L
aL27244L
aL27252L
aL27253L
aL27257L
aL27259L
aL27260L
aL27262L
aL27264L
aL27268L
aL27270L
aL27273L
aL27277L
aL27278L
aL27282L
aL27286L
aL27287L
aL27289L
aL27290L
aL27296L
aL27297L
aL27312L
aL27317L
aL27318L
aL27319L
aL27320L
aL27321L
aL27324L
aL27330L
aL27334L
aL27335L
aL27336L
aL27341L
aL27342L
aL27344L
aL27345L
aL27348L
aL27350L
aL27354L
aL27361L
aL27362L
aL27367L
aL27369L
aL27371L
aL27372L
aL27374L
aL27377L
aL27384L
aL27386L
aL27390L
aL27393L
aL27396L
aL27397L
aL27399L
aL27400L
aL27401L
aL27407L
aL27412L
aL27414L
aL27415L
aL27423L
aL27428L
aL27429L
aL27431L
aL27434L
aL27436L
aL27443L
aL27446L
aL27453L
aL27464L
aL27469L
aL27470L
aL27474L
aL27476L
aL27477L
aL27482L
aL27483L
aL27487L
aL27488L
aL27492L
aL27493L
aL27494L
aL27497L
aL27499L
aL27503L
aL27509L
aL27513L
aL27516L
aL27521L
aL27522L
aL27524L
aL27525L
aL27530L
aL27532L
aL27533L
aL27545L
aL27547L
aL27552L
aL27554L
aL27556L
aL27558L
aL27559L
aL27564L
aL27565L
aL27567L
aL27572L
aL27575L
aL27576L
aL27580L
aL27583L
aL27585L
aL27589L
aL27590L
aL27592L
aL27594L
aL27596L
aL27597L
aL27599L
aL27600L
aL27609L
aL27611L
aL27612L
aL27614L
aL27615L
aL27616L
aL27621L
aL27623L
aL27626L
aL27627L
aL27628L
aL27629L
aL27631L
aL27636L
aL27637L
aL27640L
aL27645L
aL27648L
aL27651L
aL27652L
aL27653L
aL27660L
aL27665L
aL27667L
aL27669L
aL27670L
aL27671L
aL27674L
aL27675L
aL27677L
aL27679L
aL27680L
aL27684L
aL27685L
aL27687L
aL27690L
aL27691L
aL27692L
aL27695L
aL27698L
aL27701L
aL27707L
aL27708L
aL27712L
aL27719L
aL27720L
aL27727L
aL27731L
aL27733L
aL27735L
aL27739L
aL27741L
aL27744L
aL27746L
aL27748L
aL27752L
aL27755L
aL27757L
aL27760L
aL27761L
aL27766L
aL27767L
aL27771L
aL27775L
aL27778L
aL27781L
aL27784L
aL27786L
aL27789L
aL27794L
aL27795L
aL27800L
aL27803L
aL27807L
aL27808L
aL27809L
aL27810L
aL27811L
aL27812L
aL27815L
aL27818L
aL27820L
aL27827L
aL27829L
aL27830L
aL27831L
aL27837L
aL27846L
aL27848L
aL27854L
aL27857L
aL27863L
aL27865L
aL27868L
aL27873L
aL27875L
aL27879L
aL27887L
aL27890L
aL27891L
aL27896L
aL27898L
aL27899L
aL27900L
aL27909L
aL27910L
aL27911L
aL27914L
aL27919L
aL27921L
aL27922L
aL27923L
aL27924L
aL27925L
aL27926L
aL27929L
aL27931L
aL27934L
aL27936L
aL27937L
aL27940L
aL27943L
aL27944L
aL27947L
aL27949L
aL27951L
aL27953L
aL27957L
aL27958L
aL27960L
aL27963L
aL27965L
aL27970L
aL27973L
aL27985L
aL27993L
aL27999L
aL28001L
aL28002L
aL28003L
aL28006L
aL28007L
aL28013L
aL28018L
aL28019L
aL28027L
aL28030L
aL28032L
aL28033L
aL28037L
aL28039L
aL28041L
aL28043L
aL28048L
aL28055L
aL28056L
aL28066L
aL28072L
aL28074L
aL28075L
aL28076L
aL28078L
aL28080L
aL28081L
aL28082L
aL28087L
aL28090L
aL28092L
aL28094L
aL28095L
aL28113L
aL28118L
aL28120L
aL28122L
aL28123L
aL28124L
aL28130L
aL28135L
aL28136L
aL28137L
aL28139L
aL28141L
aL28142L
aL28145L
aL28146L
aL28147L
aL28148L
aL28150L
aL28151L
aL28152L
aL28154L
aL28156L
aL28159L
aL28161L
aL28166L
aL28168L
aL28171L
aL28175L
aL28179L
aL28189L
aL28195L
aL28197L
aL28198L
aL28200L
aL28201L
aL28202L
aL28204L
aL28207L
aL28210L
aL28213L
aL28214L
aL28215L
aL28217L
aL28219L
aL28225L
aL28226L
aL28227L
aL28230L
aL28235L
aL28238L
aL28243L
aL28247L
aL28252L
aL28257L
aL28261L
aL28262L
aL28265L
aL28271L
aL28272L
aL28273L
aL28275L
aL28276L
aL28277L
aL28284L
aL28285L
aL28288L
aL28298L
aL28301L
aL28305L
aL28306L
aL28308L
aL28309L
aL28319L
aL28323L
aL28324L
aL28330L
aL28331L
aL28337L
aL28341L
aL28345L
aL28351L
aL28354L
aL28355L
aL28356L
aL28360L
aL28365L
aL28366L
atRp3
.