(dp1
I151
F324096.04816513759
sI152
F392242.55855855858
sI153
F501361.21099290781
sI154
F461164.61148648651
sI155
F461950.407239819
sI156
F422043.72833333333
sI157
F331478.65000000002
sI158
F407535.38812785386
sI159
F704613.47115384613
sI160
F548899.3432624113
sI161
F489927.06666666665
sI162
F450536.88756388414
sI163
F405453.63199999998
sI164
F299998.42798353912
sI165
F389998.53620352253
sI166
F448052.25335120643
sI167
F469927.70364963502
sI168
F414238.26530612243
sI169
F459830.60426929395
sI170
F369613.58649093902
sI171
F363381.46047430829
sI172
F303710.95905172412
sI173
F478965.46984126983
sI174
F447049.81419939577
sI175
F415704.31066460587
sI176
F372472.7121212121
sI177
F317971.50604490499
sI178
F356355.09960159363
sI179
F389114.18119266053
sI180
F493100.9086826347
sI181
F548009.41860465112
sI182
F445555.21460506704
sI183
F376751.23933209648
sI184
F374195.35153583618
sI185
F338656.98308668076
sI186
F335783.98538622132
sI187
F506280.22530864197
sI188
F382484.08603896102
sI189
F401198.82324840763
sI190
F413950.30873493978
sI191
F371628.35634028894
sI192
F306400.32016632019
sI193
F301976.51827956986
sI194
F359696.81268436578
sI195
F399925.21399730822
sI196
F382806.29247910861
sI197
F425488.00168634066
sI198
F322729.44727891154
sI199
F324225.02136752137
sI200
F374209.38695652172
sI201
F400790.04187604692
sI202
F363544.55940594058
sI203
F486284.34956521739
sI204
F495422.26796116505
sI205
F377485.33395872422
sI206
F400540.70204081631
sI207
F360828.55855855858
sI208
F449758.99283154123
sI209
F584056.21299638995
sI210
F394880.95833333331
sI211
F386802.41267123289
sI212
F600764.60383386584
sI213
F312415.56666666665
sI214
F326024.03004291846
sI215
F412221.7259380098
sI216
F509921.7957166392
sI217
F431297.6607431341
sI218
F439972.62802768167
sI219
F372734.60561056103
sI220
F292056.79393939395
sI221
F347641.27896995709
sI222
F434655.85692307691
sI223
F408485.42022116901
sI224
F445175.01712328766
sI225
F467232.05871212122
sI226
F417555.50234741782
sI227
F309091.6699604743
sI228
F321325.77777777775
sI229
F426344.50382848392
sI230
F376678.68115942029
sI231
F331801.6169871795
sI232
F385791.42691029899
sI233
F349018.41199226305
sI234
F330795.09544468549
sI235
F282789.3790149893
sI236
F434323.29057187017
sI237
F371625.07931570761
sI238
F357216.87797147385
sI239
F368289.20865533233
sI240
F348125.04926108377
sI241
F374892.4380165289
sI242
F390934.25384615385
s.