(dp1
I151
I436
sI152
I444
sI153
I564
sI154
I592
sI155
I663
sI156
I600
sI157
I460
sI158
I438
sI159
I624
sI160
I705
sI161
I630
sI162
I587
sI163
I625
sI164
I486
sI165
I511
sI166
I746
sI167
I685
sI168
I637
sI169
I609
sI170
I607
sI171
I506
sI172
I464
sI173
I630
sI174
I662
sI175
I647
sI176
I594
sI177
I579
sI178
I502
sI179
I436
sI180
I668
sI181
I688
sI182
I671
sI183
I539
sI184
I586
sI185
I473
sI186
I479
sI187
I648
sI188
I616
sI189
I628
sI190
I664
sI191
I623
sI192
I481
sI193
I465
sI194
I678
sI195
I743
sI196
I718
sI197
I593
sI198
I588
sI199
I468
sI200
I460
sI201
I597
sI202
I606
sI203
I575
sI204
I515
sI205
I533
sI206
I490
sI207
I444
sI208
I558
sI209
I554
sI210
I600
sI211
I584
sI212
I626
sI213
I480
sI214
I466
sI215
I613
sI216
I607
sI217
I619
sI218
I578
sI219
I606
sI220
I495
sI221
I466
sI222
I650
sI223
I633
sI224
I584
sI225
I528
sI226
I639
sI227
I506
sI228
I495
sI229
I653
sI230
I621
sI231
I624
sI232
I602
sI233
I517
sI234
I461
sI235
I467
sI236
I647
sI237
I643
sI238
I631
sI239
I647
sI240
I609
sI241
I484
sI242
I520
s.