(dp1
I151
I845
sI152
I836
sI153
I956
sI154
I969
sI155
I941
sI156
I934
sI157
I837
sI158
I788
sI159
I951
sI160
I892
sI161
I875
sI162
I906
sI163
I919
sI164
I823
sI165
I876
sI166
I1052
sI167
I1080
sI168
I1073
sI169
I1054
sI170
I995
sI171
I910
sI172
I914
sI173
I1080
sI174
I1063
sI175
I1062
sI176
I1147
sI177
I1038
sI178
I946
sI179
I957
sI180
I1139
sI181
I1166
sI182
I1060
sI183
I950
sI184
I1010
sI185
I925
sI186
I889
sI187
I992
sI188
I1013
sI189
I1003
sI190
I1009
sI191
I941
sI192
I860
sI193
I895
sI194
I1008
sI195
I975
sI196
I947
sI197
I896
sI198
I910
sI199
I817
sI200
I844
sI201
I1009
sI202
I952
sI203
I1044
sI204
I965
sI205
I947
sI206
I832
sI207
I853
sI208
I1001
sI209
I949
sI210
I956
sI211
I990
sI212
I1128
sI213
I882
sI214
I890
sI215
I1017
sI216
I950
sI217
I989
sI218
I918
sI219
I950
sI220
I789
sI221
I779
sI222
I980
sI223
I940
sI224
I939
sI225
I909
sI226
I967
sI227
I863
sI228
I832
sI229
I1030
sI230
I959
sI231
I944
sI232
I959
sI233
I954
sI234
I868
sI235
I888
sI236
I1125
sI237
I1089
sI238
I1054
sI239
I1104
sI240
I1021
sI241
I913
sI242
I968
s.