(dp1
I151
F131451.62840236686
sI152
F188287.97846889953
sI153
F389314.62761506275
sI154
F337524.33849329205
sI155
F321829.30393198726
sI156
F232650.13704496788
sI157
F246314.81959378734
sI158
F228523.89847715737
sI159
F253507.47739221872
sI160
F316297.76457399101
sI161
F317064.98171428574
sI162
F282742.33002207504
sI163
F309338.05549510336
sI164
F352139.43985419197
sI165
F248849.76369863015
sI166
F364983.92205323192
sI167
F306797.26851851854
sI168
F334550.74557315937
sI169
F305584.49240986718
sI170
F334897.48040201003
sI171
F185786.22747252748
sI172
F253861.58096280089
sI173
F411624.71388888889
sI174
F322396.54938852304
sI175
F300714.16949152545
sI176
F434308.03225806454
sI177
F296027.75818882463
sI178
F210763.24630021141
sI179
F249670.13270637408
sI180
F373833.8428446005
sI181
F307448.86277873069
sI182
F343649.99433962262
sI183
F271536.64315789472
sI184
F251038.06435643564
sI185
F182272.4627027027
sI186
F281725.01687289088
sI187
F335343.24395161291
sI188
F359281.78381046397
sI189
F307959.29112662014
sI190
F319333.1853320119
sI191
F283348.21891604678
sI192
F201726.88255813954
sI193
F243955.28603351954
sI194
F270004.92361111112
sI195
F378925.66153846151
sI196
F293996.92608236539
sI197
F228345.19084821429
sI198
F178961.25274725276
sI199
F150317.34638922889
sI200
F187187.33175355449
sI201
F322372.33300297323
sI202
F323205.32037815126
sI203
F276824.57088122604
sI204
F294602.07253886008
sI205
F246045.63463569165
sI206
F182888.69951923078
sI207
F330286.57561547478
sI208
F393263.08991008991
sI209
F195479.02845100107
sI210
F290851.38807531382
sI211
F272352.04141414142
sI212
F250526.36790780141
sI213
F183776.5941043084
sI214
F136141.52696629215
sI215
F244519.19764011799
sI216
F293129.73789473687
sI217
F250468.95753286147
sI218
F309168.61437908496
sI219
F215148.44947368422
sI220
F182027.52724968313
sI221
F287067.80487804877
sI222
F393770.61122448981
sI223
F270487.56382978725
sI224
F328790.81789137382
sI225
F278000.87568756874
sI226
F228639.78076525335
sI227
F184006.25724217846
sI228
F233629.36658653847
sI229
F374699.92621359223
sI230
F258294.48279457769
sI231
F259237.91525423728
sI232
F193504.49113660061
sI233
F244141.56603773584
sI234
F226705.29493087556
sI235
F236383.76914414414
sI236
F235104.4311111111
sI237
F249059.30211202937
sI238
F327940.58633776091
sI239
F296444.00543478259
sI240
F351807.2301665034
sI241
F220985.5399780942
sI242
F164424.23140495867
s.