(dp1
I0
L21664307206L
sI1
L21683668780L
sI2
L21596908720L
sI3
L21545545249L
sI4
L21551704053L
sI5
L21590289071L
sI6
L21539265430L
sI7
L21540333433L
sI8
L21741608564L
sI9
L21849107626L
sI10
L21883060272L
sI11
L21894083973L
sI12
L21865979480L
sI13
L21724708585L
sI14
L21708715582L
sI15
L21661669574L
sI16
L21654852779L
sI17
L21562359897L
sI18
L21522851356L
sI19
L21416602504L
sI20
L21433901758L
sI21
L21345275274L
sI22
L21204941111L
sI23
L21160639430L
sI24
L21112616062L
sI25
L20838041732L
sI26
L20717220690L
sI27
L20699036555L
sI28
L20632047549L
sI29
L20537915898L
sI30
L20558791735L
sI31
L20495785749L
sI32
L20443186834L
sI33
L20411184847L
sI34
L20405030486L
sI35
L20317667474L
sI36
L20315307256L
sI37
L20189176488L
sI38
L20134473425L
sI39
L20089376395L
sI40
L20056488834L
sI41
L20032588018L
sI42
L19956858850L
sI43
L19930774100L
sI44
L19860676965L
sI45
L19859342530L
sI46
L19909238452L
sI47
L19938351258L
sI48
L19969476627L
sI49
L19985814744L
sI50
L19902050427L
sI51
L19816838583L
sI52
L19809654004L
sI53
L19782695385L
sI54
L19753087271L
sI55
L19799381693L
sI56
L19680036420L
sI57
L19539516506L
sI58
L19679699850L
sI59
L19640734715L
sI60
L19599162817L
sI61
L19694811620L
sI62
L19684841456L
sI63
L19717753478L
sI64
L19723967507L
sI65
L19757175209L
sI66
L19778605094L
sI67
L19751273461L
sI68
L19774980321L
sI69
L19778112596L
sI70
L19718661160L
sI71
L19617460970L
sI72
L19623908461L
sI73
L19577313188L
sI74
L19573505127L
sI75
L19621378538L
sI76
L19621134576L
sI77
L19587953252L
sI78
L19482545871L
sI79
L19470894099L
sI80
L19435379292L
sI81
L19484201053L
sI82
L19433856126L
sI83
L19391689432L
sI84
L19315945046L
sI85
L19334568604L
sI86
L19304389297L
sI87
L19186255088L
sI88
L19099357862L
sI89
L18954277524L
sI90
L18936064993L
sI91
L18982271775L
s.