(dp1
I0
(lp2
F214832524.16059497
aF275152043.73497063
asI1
(lp3
F141782862.67334044
aF165667824.58109668
asI2
(lp4
F114232214.17206959
aF190162781.15001377
asI3
(lp5
F243072534.79242149
aF307384753.9904623
asI4
(lp6
F274962120.23455989
aF365120926.08964634
asI5
(lp7
F262764647.68779561
aF298543629.37432277
asI6
(lp8
F205389717.05896884
aF246418082.72794148
asI7
(lp9
F226057035.89241308
aF218607347.69146422
asI8
(lp10
F157926054.94635636
aF207902288.16522381
asI9
(lp11
F97095683.178465948
aF220037588.7447831
asI10
(lp12
F279878083.97730607
aF304482210.67332649
asI11
(lp13
F296922817.95620489
aF329207430.71237367
asI12
(lp14
F259083510.61607838
aF278902172.32821894
asI13
(lp15
F231596473.12899044
aF288037399.71784079
asI14
(lp16
F198264472.21532077
aF319034550.19027382
asI15
(lp17
F183515612.64072868
aF153325425.84177491
asI16
(lp18
F119015282.89249918
aF201909460.00859955
asI17
(lp19
F280862101.96269566
aF293911785.71549851
asI18
(lp20
F289352584.50432897
aF292735574.3338744
asI19
(lp21
F335182157.87365407
aF368962426.13294488
asI20
(lp22
F255858458.95712921
aF293404657.67862701
asI21
(lp23
F229650982.75835848
aF251887000.64290732
asI22
(lp24
F149504520.06212118
aF158110318.13250357
asI23
(lp25
F80809727.167932078
aF227160402.78089383
asI24
(lp26
F292117402.547472
aF312856264.85961837
asI25
(lp27
F266677816.89963928
aF307098980.04152226
asI26
(lp28
F207353718.00388509
aF267290934.44347864
asI27
(lp29
F247642816.17978415
aF314278752.37382907
asI28
(lp30
F218270820.33595574
aF210256888.73345545
asI29
(lp31
F139103940.62016591
aF188326743.33109686
as.