(dp1
I0
(lp2
cnumpy.core.multiarray
_reconstruct
p3
(cnumpy
ndarray
p4
(I0
tS'b'
tRp5
(I1
(I1
tcnumpy
dtype
p6
(S'f8'
I0
I1
tRp7
(I3
S'<'
NNNI-1
I-1
I0
tbI00
S'!\x94\xb6\xb4\xe2o\xaeA'
tbag3
(g4
(I0
tS'b'
tRp8
(I1
(I1
tg6
(S'f8'
I0
I1
tRp9
(I3
S'<'
NNNI-1
I-1
I0
tbI00
S'\xcen\x0c\x91\xb6l\xb0A'
tbasI1
(lp10
g3
(g4
(I0
tS'b'
tRp11
(I1
(I1
tg7
I00
S'\x9a\xcf6\xf6\\\xde\xaeA'
tbag3
(g4
(I0
tS'b'
tRp12
(I1
(I1
tg9
I00
S'Rv\xa6\x1dw\xa5\xb0A'
tbasI2
(lp13
g3
(g4
(I0
tS'b'
tRp14
(I1
(I1
tg7
I00
S'\n\x8c\xe50\x17?\xacA'
tbag3
(g4
(I0
tS'b'
tRp15
(I1
(I1
tg9
I00
S'D=\x90\x94\xfc\xe6\xb0A'
tbasI3
(lp16
g3
(g4
(I0
tS'b'
tRp17
(I1
(I1
tg7
I00
S'\xafE\xd76\x10N\xabA'
tbag3
(g4
(I0
tS'b'
tRp18
(I1
(I1
tg9
I00
S'\x8aY\x87Q\x8b*\xb0A'
tbasI4
(lp19
g3
(g4
(I0
tS'b'
tRp20
(I1
(I1
tg7
I00
S'U\xb7\x05X\xc4=\xaeA'
tbag3
(g4
(I0
tS'b'
tRp21
(I1
(I1
tg9
I00
S'jr\x8e\x99\xb58\xaeA'
tbasI5
(lp22
g3
(g4
(I0
tS'b'
tRp23
(I1
(I1
tg7
I00
S'\xf2\xae\x821\xbd\xf7\xa4A'
tbag3
(g4
(I0
tS'b'
tRp24
(I1
(I1
tg9
I00
S'\xeagg*\xb1\x8c\xa7A'
tbasI6
(lp25
g3
(g4
(I0
tS'b'
tRp26
(I1
(I1
tg7
I00
S'\xdf\x94O\x1e($\xa4A'
tbag3
(g4
(I0
tS'b'
tRp27
(I1
(I1
tg9
I00
S'VFw\xe0\xe2\x1b\xa9A'
tbasI7
(lp28
g3
(g4
(I0
tS'b'
tRp29
(I1
(I1
tg7
I00
S'ui\xc4\x7f\xea\x0e\xadA'
tbag3
(g4
(I0
tS'b'
tRp30
(I1
(I1
tg9
I00
S'\x05\x91eN1$\xb1A'
tbasI8
(lp31
g3
(g4
(I0
tS'b'
tRp32
(I1
(I1
tg7
I00
S'\x0bs`G\x81n\xafA'
tbag3
(g4
(I0
tS'b'
tRp33
(I1
(I1
tg9
I00
S'\x02[Y\x02MQ\xb0A'
tbasI9
(lp34
g3
(g4
(I0
tS'b'
tRp35
(I1
(I1
tg7
I00
S'\x94WW\xbc6\xc9\xacA'
tbag3
(g4
(I0
tS'b'
tRp36
(I1
(I1
tg9
I00
S'\xc4R\x9a\x8fe\x0e\xb1A'
tbasI10
(lp37
g3
(g4
(I0
tS'b'
tRp38
(I1
(I1
tg7
I00
S'\xca\x0f\x08\xf4\x9c6\xacA'
tbag3
(g4
(I0
tS'b'
tRp39
(I1
(I1
tg9
I00
S'n\xd0\x9dOD\xe2\xafA'
tbasI11
(lp40
g3
(g4
(I0
tS'b'
tRp41
(I1
(I1
tg7
I00
S'\x17W\x03\xd1?\xd2\xa9A'
tbag3
(g4
(I0
tS'b'
tRp42
(I1
(I1
tg9
I00
S'\x19\xf2\x95\x96m\x9b\xafA'
tbasI12
(lp43
g3
(g4
(I0
tS'b'
tRp44
(I1
(I1
tg7
I00
S'\xa3\x0f,\xdf\xcb7\xa3A'
tbag3
(g4
(I0
tS'b'
tRp45
(I1
(I1
tg9
I00
S'e*"\xf0|\x83\xa9A'
tbasI13
(lp46
g3
(g4
(I0
tS'b'
tRp47
(I1
(I1
tg7
I00
S'7\xe8E"\xb3\x9e\xa3A'
tbag3
(g4
(I0
tS'b'
tRp48
(I1
(I1
tg9
I00
S'\x8a,3\xe6\xceB\xa9A'
tbasI14
(lp49
g3
(g4
(I0
tS'b'
tRp50
(I1
(I1
tg7
I00
S'\xf2|\x19\x02\xe7P\xaeA'
tbag3
(g4
(I0
tS'b'
tRp51
(I1
(I1
tg9
I00
S'\xd5L\x9d\xe2\xd7M\xb0A'
tbasI15
(lp52
g3
(g4
(I0
tS'b'
tRp53
(I1
(I1
tg7
I00
S'\x9e\xb5\xf6\x8b\xd6\xe3\xaeA'
tbag3
(g4
(I0
tS'b'
tRp54
(I1
(I1
tg9
I00
S't\xea-\x19\xc6Y\xb0A'
tbasI16
(lp55
g3
(g4
(I0
tS'b'
tRp56
(I1
(I1
tg7
I00
S'D\x88VgI6\xadA'
tbag3
(g4
(I0
tS'b'
tRp57
(I1
(I1
tg9
I00
S'2D\xb1\xd3:\xcb\xb0A'
tbasI17
(lp58
g3
(g4
(I0
tS'b'
tRp59
(I1
(I1
tg7
I00
S',\xf7\xebkC\x14\xacA'
tbag3
(g4
(I0
tS'b'
tRp60
(I1
(I1
tg9
I00
S'\xec`\x9cs5\x04\xb0A'
tbasI18
(lp61
g3
(g4
(I0
tS'b'
tRp62
(I1
(I1
tg7
I00
S'\xd4#\xbaO\xcf\xae\xaaA'
tbag3
(g4
(I0
tS'b'
tRp63
(I1
(I1
tg9
I00
S'\x8e\x18\xc5Z\x92\xf3\xafA'
tbasI19
(lp64
g3
(g4
(I0
tS'b'
tRp65
(I1
(I1
tg7
I00
S'\xb6\xe3t\x88\xef\xc8\xa3A'
tbag3
(g4
(I0
tS'b'
tRp66
(I1
(I1
tg9
I00
S';\xc8\x92#e{\xaaA'
tbasI20
(lp67
g3
(g4
(I0
tS'b'
tRp68
(I1
(I1
tg7
I00
S'\xfc4\xfb\xe6\xe0B\xa4A'
tbag3
(g4
(I0
tS'b'
tRp69
(I1
(I1
tg9
I00
S'2\x96\x10?.\xd3\xa9A'
tbasI21
(lp70
g3
(g4
(I0
tS'b'
tRp71
(I1
(I1
tg7
I00
S'\x9akj\xed\x9a\xea\xadA'
tbag3
(g4
(I0
tS'b'
tRp72
(I1
(I1
tg9
I00
S'\xf4\x8a\xa6\x0b\x83>\xafA'
tbasI22
(lp73
g3
(g4
(I0
tS'b'
tRp74
(I1
(I1
tg7
I00
S'\xb5k\xa3\xc8\xa8\x18\xaeA'
tbag3
(g4
(I0
tS'b'
tRp75
(I1
(I1
tg9
I00
S'\x01Uc\xab\x9fU\xb0A'
tbasI23
(lp76
g3
(g4
(I0
tS'b'
tRp77
(I1
(I1
tg7
I00
S'?\xc7\x90\xcf\x92\xda\xabA'
tbag3
(g4
(I0
tS'b'
tRp78
(I1
(I1
tg9
I00
S'.O\x1ccw\x06\xb1A'
tbasI24
(lp79
g3
(g4
(I0
tS'b'
tRp80
(I1
(I1
tg7
I00
S'\xca\xf5\xefe\x90R\xabA'
tbag3
(g4
(I0
tS'b'
tRp81
(I1
(I1
tg9
I00
S'7\x12\xce\x7f*\xa0\xb0A'
tbasI25
(lp82
g3
(g4
(I0
tS'b'
tRp83
(I1
(I1
tg7
I00
S'R\xd1B\xcf\xf9\xfb\xa8A'
tbag3
(g4
(I0
tS'b'
tRp84
(I1
(I1
tg9
I00
S'\xe3^2\x8f}O\xb0A'
tbasI26
(lp85
g3
(g4
(I0
tS'b'
tRp86
(I1
(I1
tg7
I00
S'\xe0\xbd\xdc\xcb(\x83\xa3A'
tbag3
(g4
(I0
tS'b'
tRp87
(I1
(I1
tg9
I00
S'\xac\x12g/2:\xabA'
tbasI27
(lp88
g3
(g4
(I0
tS'b'
tRp89
(I1
(I1
tg7
I00
S'\x18\x97t\x90\xf9\xc2\xa3A'
tbag3
(g4
(I0
tS'b'
tRp90
(I1
(I1
tg9
I00
S'\xe0\xf58ea\x13\xaaA'
tbasI28
(lp91
g3
(g4
(I0
tS'b'
tRp92
(I1
(I1
tg7
I00
S'\x12\x82"\x05r\xff\xadA'
tbag3
(g4
(I0
tS'b'
tRp93
(I1
(I1
tg9
I00
S'\xc4\x93\xf4\x05\xd7-\xafA'
tbasI29
(lp94
g3
(g4
(I0
tS'b'
tRp95
(I1
(I1
tg7
I00
S'T\xc9\xaaU\x11\x1d\xaeA'
tbag3
(g4
(I0
tS'b'
tRp96
(I1
(I1
tg9
I00
S'&\x92j5\x8b\\\xb0A'
tbas.