(dp1
I0
(lp2
F251995447.33848923
aF266378993.44443071
asI1
(lp3
F320392767.51890337
aF286470381.40396816
asI2
(lp4
F142244522.91003436
aF250840558.35107633
asI3
(lp5
F238193033.98800927
aF267897540.00337458
asI4
(lp6
F224231126.70828608
aF310812866.95048296
asI5
(lp7
F186592986.4227272
aF188360816.97175321
asI6
(lp8
F166410151.05682647
aF217935042.7744478
asI7
(lp9
F285780383.6028471
aF302162375.82022429
asI8
(lp10
F330677764.36378062
aF268266322.8555195
asI9
(lp11
F170341227.30028591
aF304227912.11710793
asI10
(lp12
F227793602.67202786
aF269228613.49644816
asI11
(lp13
F196433814.46431071
aF232074361.88987681
asI12
(lp14
F155514587.72976184
aF188102891.93308094
asI13
(lp15
F190472986.42591026
aF209015781.60045797
asI14
(lp16
F355769843.398013
aF308934604.73317498
asI15
(lp17
F253616708.34906206
aF300889636.17579371
asI16
(lp18
F152922677.63403267
aF317476230.3862415
asI17
(lp19
F264594205.57841328
aF248443467.68136868
asI18
(lp20
F234610781.80677104
aF253586491.81209928
asI19
(lp21
F170794843.91937217
aF152414231.95984849
asI20
(lp22
F162330232.06667504
aF203548959.46229047
asI21
(lp23
F312055134.63690203
aF356358270.28490651
asI22
(lp24
F235221565.11630598
aF320488466.70620477
asI23
(lp25
F164940326.40872195
aF281291941.34881765
asI24
(lp26
F278485893.52455318
aF272371572.88519269
asI25
(lp27
F238161811.43205956
aF240077219.91170231
asI26
(lp28
F169200586.48077193
aF137238008.20948777
asI27
(lp29
F168902486.30675441
aF240403809.12654009
asI28
(lp30
F291906578.56482404
aF265919571.68692714
asI29
(lp31
F276526650.66114706
aF311499914.37178934
as.