(dp1
I0
(lp2
F277603396.57817191
aF388229434.85431504
asI1
(lp3
F290891584.80497825
aF296836330.16291451
asI2
(lp4
F159909538.35257238
aF272868677.1034714
asI3
(lp5
F293480633.96867287
aF261281048.43111601
asI4
(lp6
F218220516.0110279
aF265352431.06844836
asI5
(lp7
F120979540.33708511
aF161147177.75627717
asI6
(lp8
F150420797.58316129
aF173328086.55071044
asI7
(lp9
F359960998.38899404
aF289805164.12776411
asI8
(lp10
F313885719.58755416
aF258134152.45054123
asI9
(lp11
F157378650.72641808
aF303862222.47154522
asI10
(lp12
F265606881.65896884
aF243112009.52415365
asI11
(lp13
F254851458.7383005
aF312129815.21978313
asI12
(lp14
F188376028.4848845
aF148436872.44375902
asI13
(lp15
F168470599.66811797
aF290621847.34270167
asI14
(lp16
F250040986.20151252
aF269284169.74515194
asI15
(lp17
F276124035.25739551
aF309865093.9617967
asI16
(lp18
F164268719.31510153
aF261115234.03301674
asI17
(lp19
F213132899.59150845
aF279354433.15142643
asI18
(lp20
F194200642.14486629
aF264393971.77440071
asI19
(lp21
F156523628.12492776
aF169636715.34415585
asI20
(lp22
F163020574.06883952
aF254050335.69017655
asI21
(lp23
F318371813.023013
aF264602940.04991424
asI22
(lp24
F276087128.85324669
aF348936034.751046
asI23
(lp25
F172756698.6229744
aF288798154.12392586
asI24
(lp26
F213710482.23454598
aF328768406.08800673
asI25
(lp27
F275550910.18415195
aF254117926.55416268
asI26
(lp28
F165609973.20894653
aF205493814.68863624
asI27
(lp29
F186962635.06277883
aF220508265.98328617
asI28
(lp30
F272455605.5940448
aF434695940.44919229
asI29
(lp31
F252197605.68322524
aF272301997.30992061
as.