(dp1
I0
(lp2
F282918432.65417188
aF388229434.85431504
asI1
(lp3
F293257912.81937426
aF296836330.16291451
asI2
(lp4
F162175670.68134925
aF272868677.1034714
asI3
(lp5
F292647362.1176303
aF261281048.43111601
asI4
(lp6
F218265500.94320774
aF265352431.06844836
asI5
(lp7
F119706091.22575822
aF161147177.75627717
asI6
(lp8
F147986998.04897988
aF173328086.55071044
asI7
(lp9
F356817648.37676418
aF289805164.12776411
asI8
(lp10
F312618719.1342963
aF258134152.45054123
asI9
(lp11
F157637218.14030534
aF303862222.47154522
asI10
(lp12
F261771148.95158139
aF243112009.52415365
asI11
(lp13
F251538181.93488103
aF312129815.21978313
asI12
(lp14
F183366185.94948778
aF148436872.44375902
asI13
(lp15
F164438777.91088164
aF290621847.34270167
asI14
(lp16
F242476038.50018522
aF269284169.74515194
asI15
(lp17
F267808459.88120914
aF309865093.9617967
asI16
(lp18
F154775558.18465874
aF261115234.03301674
asI17
(lp19
F200662227.53731161
aF279354433.15142643
asI18
(lp20
F179526588.33347425
aF264393971.77440071
asI19
(lp21
F139473287.57718977
aF169636715.34415585
asI20
(lp22
F145125657.54362649
aF254050335.69017655
asI21
(lp23
F297427005.50969654
aF264602940.04991424
asI22
(lp24
F256061395.17280415
aF348936034.751046
asI23
(lp25
F150130475.0343411
aF288798154.12392586
asI24
(lp26
F187201563.63140428
aF328768406.08800673
asI25
(lp27
F245078119.99222541
aF254117926.55416268
asI26
(lp28
F134884068.43328574
aF205493814.68863624
asI27
(lp29
F154259657.39196822
aF220508265.98328617
asI28
(lp30
F237897666.88267729
aF434695940.44919229
asI29
(lp31
F212129315.31199533
aF272301997.30992061
as.